 SciLexer

 Timestamp is 4cbdd72c (Tue Oct 19 11:36:44 2010)

 Preferred load address is 10000000

 Start         Length     Name                   Class
 0001:00000000 00049374H .text                   CODE
 0002:00000000 000002fcH .idata$5                DATA
 0002:00000300 00001439H .rdata                  DATA
 0002:0000173c 00000064H .idata$2                DATA
 0002:000017a0 00000014H .idata$3                DATA
 0002:000017b4 000002fcH .idata$4                DATA
 0002:00001ab0 00000c98H .idata$6                DATA
 0002:00002750 0000005cH .edata                  DATA
 0003:00000000 00000004H .CRT$XCA                DATA
 0003:00000004 00000150H .CRT$XCU                DATA
 0003:00000154 00000004H .CRT$XCZ                DATA
 0003:00000158 00000004H .CRT$XIA                DATA
 0003:0000015c 00000010H .CRT$XIC                DATA
 0003:0000016c 00000004H .CRT$XIZ                DATA
 0003:00000170 00000004H .CRT$XPA                DATA
 0003:00000174 00000004H .CRT$XPX                DATA
 0003:00000178 00000004H .CRT$XPZ                DATA
 0003:0000017c 00000004H .CRT$XTA                DATA
 0003:00000180 00000004H .CRT$XTZ                DATA
 0003:00000190 000057bcH .data                   DATA
 0003:00005950 00002354H .bss                    DATA
 0004:00000000 000000e8H .rsrc$01                DATA
 0004:000000f0 00000488H .rsrc$02                DATA

  Address         Publics by Value              Rva+Base     Lib:Object

 0001:00000000       ??0AutoComplete@@QAE@XZ    10001000 f   AutoComplete.obj
 0001:00000061       ??1AutoComplete@@QAE@XZ    10001061 f   AutoComplete.obj
 0001:0000008c       ?Active@AutoComplete@@QAE_NXZ 1000108c f   AutoComplete.obj
 0001:0000008f       ?Start@AutoComplete@@QAEXAAVWindow@@HHVPoint@@HH_N@Z 1000108f f   AutoComplete.obj
 0001:000000e1       ?SetStopChars@AutoComplete@@QAEXPBD@Z 100010e1 f   AutoComplete.obj
 0001:00000104       ?IsStopChar@AutoComplete@@QAE_ND@Z 10001104 f   AutoComplete.obj
 0001:00000128       ?SetFillUpChars@AutoComplete@@QAEXPBD@Z 10001128 f   AutoComplete.obj
 0001:0000014e       ?IsFillUpChar@AutoComplete@@QAE_ND@Z 1000114e f   AutoComplete.obj
 0001:00000177       ?SetSeparator@AutoComplete@@QAEXD@Z 10001177 f   AutoComplete.obj
 0001:00000184       ?GetSeparator@AutoComplete@@QAEDXZ 10001184 f   AutoComplete.obj
 0001:0000018b       ?SetTypesep@AutoComplete@@QAEXD@Z 1000118b f   AutoComplete.obj
 0001:00000198       ?GetTypesep@AutoComplete@@QAEDXZ 10001198 f   AutoComplete.obj
 0001:0000019f       ?SetList@AutoComplete@@QAEXPBD@Z 1000119f f   AutoComplete.obj
 0001:000001c5       ?Show@AutoComplete@@QAEX_N@Z 100011c5 f   AutoComplete.obj
 0001:000001eb       ?Cancel@AutoComplete@@QAEXXZ 100011eb f   AutoComplete.obj
 0001:00000213       ?Move@AutoComplete@@QAEXH@Z 10001213 f   AutoComplete.obj
 0001:00000251       ?Select@AutoComplete@@QAEXPBD@Z 10001251 f   AutoComplete.obj
 0001:000003e2       ??0CallTip@@QAE@XZ         100013e2 f   CallTip.obj
 0001:0000050d       ??0ColourDesired@@QAE@III@Z 1000150d f i CallTip.obj
 0001:00000526       ??_EWindow@@UAEPAXI@Z      10001526 f i CallTip.obj
 0001:00000526       ??_GWindow@@UAEPAXI@Z      10001526 f i CallTip.obj
 0001:00000542       ??1CallTip@@QAE@XZ         10001542 f   CallTip.obj
 0001:00000583       ?RefreshColourPalette@CallTip@@QAEXAAVPalette@@_N@Z 10001583 f   CallTip.obj
 0001:000005d5       ?IsTabCharacter@CallTip@@AAE_ND@Z 100015d5 f   CallTip.obj
 0001:000005e9       ?NextTabPos@CallTip@@AAEHH@Z 100015e9 f   CallTip.obj
 0001:00000607       ?DrawChunk@CallTip@@AAEXPAVSurface@@AAHPBDHHHVPRectangle@@_N4@Z 10001607 f   CallTip.obj
 0001:000008ab       ?PaintContents@CallTip@@AAEHPAVSurface@@_N@Z 100018ab f   CallTip.obj
 0001:00000a40       ?PaintCT@CallTip@@QAEXPAVSurface@@@Z 10001a40 f   CallTip.obj
 0001:00000b10       ?MouseClick@CallTip@@QAEXVPoint@@@Z 10001b10 f   CallTip.obj
 0001:00000b5e       ?CallTipStart@CallTip@@QAE?AVPRectangle@@HVPoint@@PBD1HHHAAVWindow@@@Z 10001b5e f   CallTip.obj
 0001:00000ced       ?CallTipCancel@CallTip@@QAEXXZ 10001ced f   CallTip.obj
 0001:00000d00       ?SetHighlight@CallTip@@QAEXHH@Z 10001d00 f   CallTip.obj
 0001:00000d27       ?SetTabSize@CallTip@@QAEXH@Z 10001d27 f   CallTip.obj
 0001:00000d35       ?SetForeBack@CallTip@@QAEXABUColourPair@@0@Z 10001d35 f   CallTip.obj
 0001:00000d56       ??0MarkerHandleSet@@QAE@XZ 10001d56 f   CellBuffer.obj
 0001:00000d56       ??0Menu@@QAE@XZ            10001d56 f   CellBuffer.obj
 0001:00000d5c       ??1MarkerHandleSet@@QAE@XZ 10001d5c f   CellBuffer.obj
 0001:00000d7a       ?Length@MarkerHandleSet@@QAEHXZ 10001d7a f   CellBuffer.obj
 0001:00000d89       ?MarkValue@MarkerHandleSet@@QAEHXZ 10001d89 f   CellBuffer.obj
 0001:00000da5       ?Contains@MarkerHandleSet@@QAE_NH@Z 10001da5 f   CellBuffer.obj
 0001:00000dc1       ?InsertHandle@MarkerHandleSet@@QAE_NHH@Z 10001dc1 f   CellBuffer.obj
 0001:00000dee       ?RemoveHandle@MarkerHandleSet@@QAEXH@Z 10001dee f   CellBuffer.obj
 0001:00000e10       ?RemoveNumber@MarkerHandleSet@@QAE_NH@Z 10001e10 f   CellBuffer.obj
 0001:00000e41       ?CombineWith@MarkerHandleSet@@QAEXPAV1@@Z 10001e41 f   CellBuffer.obj
 0001:00000e5a       ??0LineVector@@QAE@XZ      10001e5a f   CellBuffer.obj
 0001:00000e84       ??1LineVector@@QAE@XZ      10001e84 f   CellBuffer.obj
 0001:00000ed5       ?Init@LineVector@@QAEXXZ   10001ed5 f   CellBuffer.obj
 0001:00000f61       ??_H@YGXPAXIHP6EX0@Z@Z     10001f61 f i CellBuffer.obj
 0001:00000f83       ?Expand@LineVector@@QAEXH@Z 10001f83 f   CellBuffer.obj
 0001:00001006       ?ExpandLevels@LineVector@@QAEXH@Z 10002006 f   CellBuffer.obj
 0001:0000107e       ?ClearLevels@LineVector@@QAEXXZ 1000207e f   CellBuffer.obj
 0001:00001094       ?InsertValue@LineVector@@QAEXHH@Z 10002094 f   CellBuffer.obj
 0001:00001157       ?SetValue@LineVector@@QAEXHH@Z 10002157 f   CellBuffer.obj
 0001:00001195       ?Remove@LineVector@@QAEXH@Z 10002195 f   CellBuffer.obj
 0001:00001228       ?LineFromPosition@LineVector@@QAEHH@Z 10002228 f   CellBuffer.obj
 0001:00001266       ?AddMark@LineVector@@QAEHHH@Z 10002266 f   CellBuffer.obj
 0001:000012c3       ?MergeMarkers@LineVector@@QAEXH@Z 100022c3 f   CellBuffer.obj
 0001:00001338       ?DeleteMark@LineVector@@QAEXHH_N@Z 10002338 f   CellBuffer.obj
 0001:000013b6       ?DeleteMarkFromHandle@LineVector@@QAEXH@Z 100023b6 f   CellBuffer.obj
 0001:00001414       ?LineFromHandle@LineVector@@QAEHH@Z 10002414 f   CellBuffer.obj
 0001:00001449       ??0Action@@QAE@XZ          10002449 f   CellBuffer.obj
 0001:0000145d       ??1Action@@QAE@XZ          1000245d f   CellBuffer.obj
 0001:00001462       ?Create@Action@@QAEXW4actionType@@HPADH_N@Z 10002462 f   CellBuffer.obj
 0001:00001493       ?Destroy@Action@@QAEXXZ    10002493 f   CellBuffer.obj
 0001:000014a5       ?Grab@Action@@QAEXPAV1@@Z  100024a5 f   CellBuffer.obj
 0001:000014ea       ??0UndoHistory@@QAE@XZ     100024ea f   CellBuffer.obj
 0001:00001544       ??_EAction@@QAEPAXI@Z      10002544 f i CellBuffer.obj
 0001:0000159e       ??1UndoHistory@@QAE@XZ     1000259e f   CellBuffer.obj
 0001:000015b3       ?EnsureUndoRoom@UndoHistory@@AAEXXZ 100025b3 f   CellBuffer.obj
 0001:00001658       ?AppendAction@UndoHistory@@QAEXW4actionType@@HPADH@Z 10002658 f   CellBuffer.obj
 0001:0000171e       ?BeginUndoAction@UndoHistory@@QAEXXZ 1000271e f   CellBuffer.obj
 0001:00001767       ?EndUndoAction@UndoHistory@@QAEXXZ 10002767 f   CellBuffer.obj
 0001:000017ad       ?DropUndoSequence@UndoHistory@@QAEXXZ 100027ad f   CellBuffer.obj
 0001:000017b2       ?DeleteUndoHistory@UndoHistory@@QAEXXZ 100027b2 f   CellBuffer.obj
 0001:000017f1       ?SetSavePoint@UndoHistory@@QAEXXZ 100027f1 f   CellBuffer.obj
 0001:000017f8       ?IsSavePoint@UndoHistory@@QBE_NXZ 100027f8 f   CellBuffer.obj
 0001:00001804       ?CanUndo@UndoHistory@@QBE_NXZ 10002804 f   CellBuffer.obj
 0001:00001814       ?StartUndo@UndoHistory@@QAEHXZ 10002814 f   CellBuffer.obj
 0001:00001849       ?CompletedUndoStep@UndoHistory@@QAEXXZ 10002849 f   CellBuffer.obj
 0001:0000184d       ?CanRedo@UndoHistory@@QBE_NXZ 1000284d f   CellBuffer.obj
 0001:0000185b       ?StartRedo@UndoHistory@@QAEHXZ 1000285b f   CellBuffer.obj
 0001:0000189a       ?GetRedoStep@UndoHistory@@QBEABVAction@@XZ 1000289a f   CellBuffer.obj
 0001:0000189a       ?GetUndoStep@UndoHistory@@QBEABVAction@@XZ 1000289a f   CellBuffer.obj
 0001:000018a6       ?CompletedRedoStep@UndoHistory@@QAEXXZ 100028a6 f   CellBuffer.obj
 0001:000018aa       ??0CellBuffer@@QAE@H@Z     100028aa f   CellBuffer.obj
 0001:00001901       ??1CellBuffer@@QAE@XZ      10002901 f   CellBuffer.obj
 0001:00001936       ?GapTo@CellBuffer@@AAEXH@Z 10002936 f   CellBuffer.obj
 0001:000019b4       ?RoomFor@CellBuffer@@AAEXH@Z 100029b4 f   CellBuffer.obj
 0001:000019e3       ?SetByteAt@CellBuffer@@AAEXHD@Z 100029e3 f   CellBuffer.obj
 0001:00001a22       ?CharAt@CellBuffer@@QAEDH@Z 10002a22 f   CellBuffer.obj
 0001:00001a47       ?GetCharRange@CellBuffer@@QAEXPADHH@Z 10002a47 f   CellBuffer.obj
 0001:00001aa7       ?StyleAt@CellBuffer@@QAEDH@Z 10002aa7 f   CellBuffer.obj
 0001:00001ace       ?InsertString@CellBuffer@@QAEPBDHPADH@Z 10002ace f   CellBuffer.obj
 0001:00001b38       ?SetStyleAt@CellBuffer@@QAE_NHDD@Z 10002b38 f   CellBuffer.obj
 0001:00001b92       ?SetStyleFor@CellBuffer@@QAE_NHHDD@Z 10002b92 f   CellBuffer.obj
 0001:00001bfa       ?DeleteChars@CellBuffer@@QAEPBDHH@Z 10002bfa f   CellBuffer.obj
 0001:00001c7e       ?MainHWND@ScintillaWin@@AAEPAUHWND__@@XZ 10002c7e f   CellBuffer.obj
 0001:00001c7e       ?ByteLength@CellBuffer@@QAEHXZ 10002c7e f   CellBuffer.obj
 0001:00001c82       ?Length@CellBuffer@@QAEHXZ 10002c82 f   CellBuffer.obj
 0001:00001c8d       ?Allocate@CellBuffer@@QAEXH@Z 10002c8d f   CellBuffer.obj
 0001:00001cdb       ?Lines@CellBuffer@@QAEHXZ  10002cdb f   CellBuffer.obj
 0001:00001cdf       ?LineStart@CellBuffer@@QAEHH@Z 10002cdf f   CellBuffer.obj
 0001:00001d00       ?IsReadOnly@CellBuffer@@QAE_NXZ 10002d00 f   CellBuffer.obj
 0001:00001d04       ?SetReadOnly@CellBuffer@@QAEX_N@Z 10002d04 f   CellBuffer.obj
 0001:00001d0e       ?SetSavePoint@CellBuffer@@QAEXXZ 10002d0e f   CellBuffer.obj
 0001:00001d16       ?IsSavePoint@CellBuffer@@QAE_NXZ 10002d16 f   CellBuffer.obj
 0001:00001d1e       ?AddMark@CellBuffer@@QAEHHH@Z 10002d1e f   CellBuffer.obj
 0001:00001d40       ?DeleteMark@CellBuffer@@QAEXHH@Z 10002d40 f   CellBuffer.obj
 0001:00001d5f       ?DeleteMarkFromHandle@CellBuffer@@QAEXH@Z 10002d5f f   CellBuffer.obj
 0001:00001d6e       ?GetMark@CellBuffer@@QAEHH@Z 10002d6e f   CellBuffer.obj
 0001:00001d94       ?DeleteAllMarks@CellBuffer@@QAEXH@Z 10002d94 f   CellBuffer.obj
 0001:00001dbd       ?LineFromHandle@CellBuffer@@QAEHH@Z 10002dbd f   CellBuffer.obj
 0001:00001dcc       ?BasicInsertString@CellBuffer@@QAEXHPADH@Z 10002dcc f   CellBuffer.obj
 0001:00001f4d       ?BasicDeleteChars@CellBuffer@@QAEXHH@Z 10002f4d f   CellBuffer.obj
 0001:00002107       ?SetUndoCollection@CellBuffer@@QAE_N_N@Z 10003107 f   CellBuffer.obj
 0001:00002120       ?IsCollectingUndo@CellBuffer@@QAE_NXZ 10003120 f   CellBuffer.obj
 0001:00002124       ?BeginUndoAction@CellBuffer@@QAEXXZ 10003124 f   CellBuffer.obj
 0001:0000212c       ?EndUndoAction@CellBuffer@@QAEXXZ 1000312c f   CellBuffer.obj
 0001:00002134       ?DeleteUndoHistory@CellBuffer@@QAEXXZ 10003134 f   CellBuffer.obj
 0001:0000213c       ?CanUndo@CellBuffer@@QAE_NXZ 1000313c f   CellBuffer.obj
 0001:00002144       ?StartUndo@CellBuffer@@QAEHXZ 10003144 f   CellBuffer.obj
 0001:0000214c       ?PerformUndoStep@CellBuffer@@QAEXXZ 1000314c f   CellBuffer.obj
 0001:000021d5       ?CanRedo@CellBuffer@@QAE_NXZ 100031d5 f   CellBuffer.obj
 0001:000021dd       ?StartRedo@CellBuffer@@QAEHXZ 100031dd f   CellBuffer.obj
 0001:000021e5       ?GetRedoStep@CellBuffer@@QBEABVAction@@XZ 100031e5 f   CellBuffer.obj
 0001:000021e5       ?GetUndoStep@CellBuffer@@QBEABVAction@@XZ 100031e5 f   CellBuffer.obj
 0001:000021ed       ?PerformRedoStep@CellBuffer@@QAEXXZ 100031ed f   CellBuffer.obj
 0001:00002276       ?SetLineState@CellBuffer@@QAEHHH@Z 10003276 f   CellBuffer.obj
 0001:000022a0       ??ASVector@@QAEAAHI@Z      100032a0 f i CellBuffer.obj
 0001:000022c8       ?SizeTo@SVector@@AAEXH@Z   100032c8 f i CellBuffer.obj
 0001:0000233c       ?GetLineState@CellBuffer@@QAEHH@Z 1000333c f   CellBuffer.obj
 0001:0000234d       ?GetMaxLineState@CellBuffer@@QAEHXZ 1000334d f   CellBuffer.obj
 0001:00002351       ?SetLevel@CellBuffer@@QAEHHH@Z 10003351 f   CellBuffer.obj
 0001:0000238a       ?GetLevel@CellBuffer@@QAEHH@Z 1000338a f   CellBuffer.obj
 0001:000023ab       ?ClearLevels@CellBuffer@@QAEXXZ 100033ab f   CellBuffer.obj
 0001:000023b3       ??0CharClassify@@QAE@XZ    100033b3 f   CharClassify.obj
 0001:000023c1       ?SetDefaultCharClasses@CharClassify@@QAEX_N@Z 100033c1 f   CharClassify.obj
 0001:0000241b       ?SetCharClasses@CharClassify@@QAEXPBEW4cc@1@@Z 1000341b f   CharClassify.obj
 0001:0000243f       ??0OneLine@@QAE@XZ         1000343f f   ContractionState.obj
 0001:0000245b       ??0ContractionState@@QAE@XZ 1000345b f   ContractionState.obj
 0001:0000247e       ??_EContractionState@@UAEPAXI@Z 1000347e f i ContractionState.obj
 0001:0000247e       ??_GContractionState@@UAEPAXI@Z 1000347e f i ContractionState.obj
 0001:0000249a       ??1ContractionState@@UAE@XZ 1000349a f   ContractionState.obj
 0001:000024a5       ?MakeValid@ContractionState@@ABEXXZ 100034a5 f   ContractionState.obj
 0001:0000256b       ?Clear@ContractionState@@QAEXXZ 1000356b f   ContractionState.obj
 0001:0000259f       ?LinesDisplayed@ContractionState@@QBEHXZ 1000359f f   ContractionState.obj
 0001:000025b2       ?DisplayFromDoc@ContractionState@@QBEHH@Z 100035b2 f   ContractionState.obj
 0001:000025e8       ?DocFromDisplay@ContractionState@@QBEHH@Z 100035e8 f   ContractionState.obj
 0001:00002622       ?Grow@ContractionState@@AAEXH@Z 10003622 f   ContractionState.obj
 0001:000026f9       ??_EOneLine@@UAEPAXI@Z     100036f9 f i ContractionState.obj
 0001:0000274c       ?InsertLines@ContractionState@@QAEXHH@Z 1000374c f   ContractionState.obj
 0001:0000281b       ?DeleteLines@ContractionState@@QAEXHH@Z 1000381b f   ContractionState.obj
 0001:000028c5       ?GetVisible@ContractionState@@QBE_NH@Z 100038c5 f   ContractionState.obj
 0001:000028ed       ?SetVisible@ContractionState@@QAE_NHH_N@Z 100038ed f   ContractionState.obj
 0001:00002976       ?GetExpanded@ContractionState@@QBE_NH@Z 10003976 f   ContractionState.obj
 0001:0000299e       ?SetExpanded@ContractionState@@QAE_NH_N@Z 1000399e f   ContractionState.obj
 0001:000029e8       ?GetHeight@ContractionState@@QBEHH@Z 100039e8 f   ContractionState.obj
 0001:00002a0d       ?SetHeight@ContractionState@@QAE_NHH@Z 10003a0d f   ContractionState.obj
 0001:00002a59       ?ShowAll@ContractionState@@QAEXXZ 10003a59 f   ContractionState.obj
 0001:00002a8a       ??0Document@@QAE@XZ        10003a8a f   Document.obj
 0001:00002b36       ??_GDocument@@UAEPAXI@Z    10003b36 f i Document.obj
 0001:00002b36       ??_EDocument@@UAEPAXI@Z    10003b36 f i Document.obj
 0001:00002b52       ??1Document@@UAE@XZ        10003b52 f   Document.obj
 0001:00002be4       ?AddRef@Document@@QAEHXZ   10003be4 f   Document.obj
 0001:00002bee       ?Release@Document@@QAEHXZ  10003bee f   Document.obj
 0001:00002c07       ?SetSavePoint@Document@@QAEXXZ 10003c07 f   Document.obj
 0001:00002c1d       ?AddMark@Document@@QAEHHH@Z 10003c1d f   Document.obj
 0001:00002c7e       ?AddMarkSet@Document@@QAEXHH@Z 10003c7e f   Document.obj
 0001:00002cef       ?DeleteMark@Document@@QAEXHH@Z 10003cef f   Document.obj
 0001:00002d4a       ?DeleteMarkFromHandle@Document@@QAEXH@Z 10003d4a f   Document.obj
 0001:00002d9a       ?DeleteAllMarks@Document@@QAEXH@Z 10003d9a f   Document.obj
 0001:00002dea       ?LineStart@Document@@QAEHH@Z 10003dea f   Document.obj
 0001:00002df9       ?LineEnd@Document@@QAEHH@Z 10003df9 f   Document.obj
 0001:00002e4b       ?LineFromPosition@Document@@QAEHH@Z 10003e4b f   Document.obj
 0001:00002e5a       ?LineEndPosition@Document@@QAEHH@Z 10003e5a f   Document.obj
 0001:00002e72       ?VCHomePosition@Document@@QAEHH@Z 10003e72 f   Document.obj
 0001:00002ed3       ?SetLevel@Document@@QAEHHH@Z 10003ed3 f   Document.obj
 0001:00002f3c       ?GetLastChild@Document@@QAEHHH@Z 10003f3c f   Document.obj
 0001:0000300e       ?GetFoldParent@Document@@QAEHH@Z 1000400e f   Document.obj
 0001:00003073       ?ClampPositionIntoDocument@Document@@QAEHH@Z 10004073 f   Document.obj
 0001:0000308d       ?IsCrLf@Document@@QAE_NH@Z 1000408d f   Document.obj
 0001:000030cf       ?LenChar@Document@@QAEHH@Z 100040cf f   Document.obj
 0001:00003185       ?MovePositionOutsideChar@Document@@QAEHHH_N@Z 10004185 f   Document.obj
 0001:000032be       ?ModifiedAt@Document@@QAEXH@Z 100042be f   Document.obj
 0001:000032d1       ?CheckReadOnly@Document@@AAEXXZ 100042d1 f   Document.obj
 0001:00003302       ?DeleteChars@Document@@QAE_NHH@Z 10004302 f   Document.obj
 0001:00003455       ?InsertStyledString@Document@@QAE_NHPADH@Z 10004455 f   Document.obj
 0001:00003589       ?Undo@Document@@QAEHXZ     10004589 f   Document.obj
 0001:00003749       ?Redo@Document@@QAEHXZ     10004749 f   Document.obj
 0001:0000390c       ?InsertChar@Document@@QAE_NHD@Z 1000490c f   Document.obj
 0001:0000392e       ?InsertString@Document@@QAE_NHPBD@Z 1000492e f   Document.obj
 0001:0000394f       ?InsertString@Document@@QAE_NHPBDI@Z 1000494f f   Document.obj
 0001:000039b2       ?ChangeChar@Document@@QAEXHD@Z 100049b2 f   Document.obj
 0001:000039d3       ?DelChar@Document@@QAEXH@Z 100049d3 f   Document.obj
 0001:000039ef       ?DelCharBack@Document@@QAEXH@Z 100049ef f   Document.obj
 0001:00003a3d       ?GetLineIndentation@Document@@QAEHH@Z 10004a3d f   Document.obj
 0001:00003abf       ?SetLineIndentation@Document@@QAEXHH@Z 10004abf f   Document.obj
 0001:00003b9b       ?GetLineIndentPosition@Document@@QAEHH@Z 10004b9b f   Document.obj
 0001:00003be6       ?GetColumn@Document@@QAEHH@Z 10004be6 f   Document.obj
 0001:00003c57       ?FindColumn@Document@@QAEHHH@Z 10004c57 f   Document.obj
 0001:00003cd3       ?Indent@Document@@QAEX_NHH@Z 10004cd3 f   Document.obj
 0001:00003d43       ?TransformLineEnds@Document@@SAPADPAHPBDIH@Z 10004d43 f   Document.obj
 0001:00003dcf       ?ConvertLineEnds@Document@@QAEXH@Z 10004dcf f   Document.obj
 0001:00003eaf       ?IsWhiteLine@Document@@QAE_NH@Z 10004eaf f   Document.obj
 0001:00003efc       ?ParaUp@Document@@QAEHH@Z  10004efc f   Document.obj
 0001:00003f3e       ?ParaDown@Document@@QAEHH@Z 10004f3e f   Document.obj
 0001:00003fa4       ?WordCharClass@Document@@AAE?AW4cc@CharClassify@@E@Z 10004fa4 f   Document.obj
 0001:00003fc9       ?ExtendWordSelect@Document@@QAEHHH_N@Z 10004fc9 f   Document.obj
 0001:00004079       ?NextWordStart@Document@@QAEHHH@Z 10005079 f   Document.obj
 0001:0000414a       ?NextWordEnd@Document@@QAEHHH@Z 1000514a f   Document.obj
 0001:00004231       ?IsWordStartAt@Document@@AAE_NH@Z 10005231 f   Document.obj
 0001:00004285       ?IsWordEndAt@Document@@AAE_NH@Z 10005285 f   Document.obj
 0001:000042e2       ?IsWordAt@Document@@AAE_NHH@Z 100052e2 f   Document.obj
 0001:0000430c       ?FindText@Document@@QAEJHHPBD_N1111PAH@Z 1000530c f   Document.obj
 0001:00004794       ??_GCharacterIndexer@@UAEPAXI@Z 10005794 f i Document.obj
 0001:00004794       ??_EDocumentIndexer@@UAEPAXI@Z 10005794 f i Document.obj
 0001:00004794       ??_GDocumentIndexer@@UAEPAXI@Z 10005794 f i Document.obj
 0001:00004794       ??_ECharacterIndexer@@UAEPAXI@Z 10005794 f i Document.obj
 0001:000047b1       ?CharAt@DocumentIndexer@@UAEDH@Z 100057b1 f i Document.obj
 0001:000047d1       ?SubstituteByPosition@Document@@QAEPBDPBDPAH@Z 100057d1 f   Document.obj
 0001:0000498b       ?LinesTotal@Document@@QAEHXZ 1000598b f   Document.obj
 0001:00004993       ?ChangeCase@Document@@QAEXVRange@@_N@Z 10005993 f   Document.obj
 0001:00004a30       ?SetDefaultCharClasses@Document@@QAEX_N@Z 10005a30 f   Document.obj
 0001:00004a3f       ?SetCharClasses@Document@@QAEXPBEW4cc@CharClassify@@@Z 10005a3f f   Document.obj
 0001:00004a52       ?SetStylingBits@Document@@QAEXH@Z 10005a52 f   Document.obj
 0001:00004a7e       ?StartStyling@Document@@QAEXHD@Z 10005a7e f   Document.obj
 0001:00004a95       ?SetStyleFor@Document@@QAE_NHD@Z 10005a95 f   Document.obj
 0001:00004b27       ?SetStyles@Document@@QAE_NHPAD@Z 10005b27 f   Document.obj
 0001:00004bf5       ?EnsureStyledTo@Document@@QAE_NH@Z 10005bf5 f   Document.obj
 0001:00004c47       ?IncrementStyleClock@Document@@QAEXXZ 10005c47 f   Document.obj
 0001:00004c63       ?AddWatcher@Document@@QAE_NPAVDocWatcher@@PAX@Z 10005c63 f   Document.obj
 0001:00004d32       ?RemoveWatcher@Document@@QAE_NPAVDocWatcher@@PAX@Z 10005d32 f   Document.obj
 0001:00004e2c       ?NotifyModifyAttempt@Document@@AAEXXZ 10005e2c f   Document.obj
 0001:00004e5c       ?NotifySavePoint@Document@@AAEX_N@Z 10005e5c f   Document.obj
 0001:00004e92       ?NotifyModified@Document@@AAEXVDocModification@@@Z 10005e92 f   Document.obj
 0001:00004edc       ?IsWordPartSeparator@Document@@QAE_ND@Z 10005edc f   Document.obj
 0001:00004f0a       ?WordPartLeft@Document@@QAEHH@Z 10005f0a f   Document.obj
 0001:00005139       ?WordPartRight@Document@@QAEHH@Z 10006139 f   Document.obj
 0001:0000534c       ?ExtendStyleRange@Document@@QAEHHH_N@Z 1000634c f   Document.obj
 0001:000053d8       ?BraceMatch@Document@@QAEHHH@Z 100063d8 f   Document.obj
 0001:000054f1       ??1DocumentAccessor@@UAE@XZ 100064f1 f   DocumentAccessor.obj
 0001:000054f8       ??_EAccessor@@UAEPAXI@Z    100064f8 f i DocumentAccessor.obj
 0001:000054f8       ??_GAccessor@@UAEPAXI@Z    100064f8 f i DocumentAccessor.obj
 0001:00005515       ?InternalIsLeadByte@DocumentAccessor@@MAE_ND@Z 10006515 f   DocumentAccessor.obj
 0001:00005535       ?Fill@DocumentAccessor@@MAEXH@Z 10006535 f   DocumentAccessor.obj
 0001:000055de       ?Match@DocumentAccessor@@UAE_NHPBD@Z 100065de f   DocumentAccessor.obj
 0001:00005611       ?SafeGetCharAt@Accessor@@QAEDHD@Z 10006611 f i DocumentAccessor.obj
 0001:00005656       ?StyleAt@DocumentAccessor@@UAEDH@Z 10006656 f   DocumentAccessor.obj
 0001:00005675       ?GetLine@DocumentAccessor@@UAEHH@Z 10006675 f   DocumentAccessor.obj
 0001:00005687       ?LineStart@DocumentAccessor@@UAEHH@Z 10006687 f   DocumentAccessor.obj
 0001:00005699       ?LevelAt@DocumentAccessor@@UAEHH@Z 10006699 f   DocumentAccessor.obj
 0001:000056ae       ?Length@DocumentAccessor@@UAEHXZ 100066ae f   DocumentAccessor.obj
 0001:000056d2       ?GetLineState@DocumentAccessor@@UAEHH@Z 100066d2 f   DocumentAccessor.obj
 0001:000056e7       ?SetLineState@DocumentAccessor@@UAEHHH@Z 100066e7 f   DocumentAccessor.obj
 0001:00005700       ?StartAt@DocumentAccessor@@UAEXID@Z 10006700 f   DocumentAccessor.obj
 0001:0000572e       ?StartSegment@DocumentAccessor@@UAEXI@Z 1000672e f   DocumentAccessor.obj
 0001:0000573b       ?ColourTo@DocumentAccessor@@UAEXIH@Z 1000673b f   DocumentAccessor.obj
 0001:00005800       ?SetLevel@DocumentAccessor@@UAEXHH@Z 10006800 f   DocumentAccessor.obj
 0001:00005816       ?Flush@DocumentAccessor@@UAEXXZ 10006816 f   DocumentAccessor.obj
 0001:0000585c       ?IndentAmount@DocumentAccessor@@UAEHHPAHP6A_NAAVAccessor@@HH@Z@Z 1000685c f   DocumentAccessor.obj
 0001:00005975       ??AAccessor@@QAEDH@Z       10006975 f i DocumentAccessor.obj
 0001:000059a4       ??0Caret@@QAE@XZ           100069a4 f   Editor.obj
 0001:000059b5       ??0Timer@@QAE@XZ           100069b5 f   Editor.obj
 0001:000059c2       ??0Idler@@QAE@XZ           100069c2 f   Editor.obj
 0001:000059cc       ??0LineLayout@@QAE@H@Z     100069cc f   Editor.obj
 0001:00005a32       ??_GLineLayout@@UAEPAXI@Z  10006a32 f i Editor.obj
 0001:00005a32       ??_ELineLayout@@UAEPAXI@Z  10006a32 f i Editor.obj
 0001:00005a4e       ??1LineLayout@@UAE@XZ      10006a4e f   Editor.obj
 0001:00005a59       ?Resize@LineLayout@@QAEXH@Z 10006a59 f   Editor.obj
 0001:00005aa6       ?Free@LineLayout@@QAEXXZ   10006aa6 f   Editor.obj
 0001:00005ae9       ?Invalidate@LineLayout@@QAEXW4validLevel@1@@Z 10006ae9 f   Editor.obj
 0001:00005af8       ?SetLineStart@LineLayout@@QAEXHH@Z 10006af8 f   Editor.obj
 0001:00005b61       ?SetBracesHighlight@LineLayout@@QAEXVRange@@QAHDH@Z 10006b61 f   Editor.obj
 0001:00005bee       ?RestoreBracesHighlight@LineLayout@@QAEXVRange@@QAH@Z 10006bee f   Editor.obj
 0001:00005c5c       ??0LineLayoutCache@@QAE@XZ 10006c5c f   Editor.obj
 0001:00005c87       ??_ELineLayoutCache@@UAEPAXI@Z 10006c87 f i Editor.obj
 0001:00005c87       ??_GLineLayoutCache@@UAEPAXI@Z 10006c87 f i Editor.obj
 0001:00005ca3       ??1LineLayoutCache@@UAE@XZ 10006ca3 f   Editor.obj
 0001:00005cae       ?Allocate@LineLayoutCache@@AAEXH@Z 10006cae f   Editor.obj
 0001:00005cfd       ?AllocateForLevel@LineLayoutCache@@AAEXHH@Z 10006cfd f   Editor.obj
 0001:00005d6a       ?Deallocate@LineLayoutCache@@QAEXXZ 10006d6a f   Editor.obj
 0001:00005da3       ?Invalidate@LineLayoutCache@@QAEXW4validLevel@LineLayout@@@Z 10006da3 f   Editor.obj
 0001:00005de3       ?SetLevel@LineLayoutCache@@QAEXH@Z 10006de3 f   Editor.obj
 0001:00005e00       ?Retrieve@LineLayoutCache@@QAEPAVLineLayout@@HHHHHH@Z 10006e00 f   Editor.obj
 0001:00005f21       ?Dispose@LineLayoutCache@@QAEXPAVLineLayout@@@Z 10006f21 f   Editor.obj
 0001:00005f43       ??0Editor@@IAE@XZ          10006f43 f   Editor.obj
 0001:00006269       ??_EDocWatcher@@UAEPAXI@Z  10007269 f i Editor.obj
 0001:00006269       ??_GDocWatcher@@UAEPAXI@Z  10007269 f i Editor.obj
 0001:00006286       ?GetCtrlID@Editor@@MAEHXZ  10007286 f i Editor.obj
 0001:0000628d       ?SetIdle@Editor@@MAE_N_N@Z 1000728d f i Editor.obj
 0001:00006292       ?ValidCodePage@Editor@@MBE_NH@Z 10007292 f i Editor.obj
 0001:00006297       ??_GEditor@@MAEPAXI@Z      10007297 f i Editor.obj
 0001:00006297       ??_EEditor@@MAEPAXI@Z      10007297 f i Editor.obj
 0001:000062b3       ??1Editor@@MAE@XZ          100072b3 f   Editor.obj
 0001:00006380       ?Free@SelectionText@@QAEXXZ 10007380 f i Editor.obj
 0001:0000639d       ?Finalise@Editor@@MAEXXZ   1000739d f   Editor.obj
 0001:000063b3       ?DropGraphics@Editor@@IAEXXZ 100073b3 f   Editor.obj
 0001:000063ef       ?InvalidateStyleData@Editor@@IAEXXZ 100073ef f   Editor.obj
 0001:00006446       ?InvalidateStyleRedraw@Editor@@IAEXXZ 10007446 f   Editor.obj
 0001:00006465       ?RefreshColourPalette@Editor@@MAEXAAVPalette@@_N@Z 10007465 f   Editor.obj
 0001:00006478       ?RefreshStyleData@Editor@@IAEXXZ 10007478 f   Editor.obj
 0001:000064dc       ??0AutoSurface@@QAE@PAVEditor@@@Z 100074dc f i Editor.obj
 0001:0000653b       ??1AutoSurface@@QAE@XZ     1000753b f i Editor.obj
 0001:00006548       ?GetClientRectangle@Editor@@MAE?AVPRectangle@@XZ 10007548 f   Editor.obj
 0001:0000655b       ?GetTextRectangle@Editor@@IAE?AVPRectangle@@XZ 1000755b f   Editor.obj
 0001:00006594       ?LinesOnScreen@Editor@@IAEHXZ 10007594 f   Editor.obj
 0001:000065b8       ?LinesToScroll@Editor@@IAEHXZ 100075b8 f   Editor.obj
 0001:000065c7       ?MaxScrollPos@Editor@@IAEHXZ 100075c7 f   Editor.obj
 0001:000065fa       ?ControlCharacterString@@YAPBDE@Z 100075fa f   Editor.obj
 0001:000066fa       ?LocationFromPosition@Editor@@IAE?AVPoint@@H@Z 100076fa f   Editor.obj
 0001:0000690b       ?XFromPosition@Editor@@IAEHH@Z 1000790b f   Editor.obj
 0001:00006933       ?LineFromLocation@Editor@@IAEHVPoint@@@Z 10007933 f   Editor.obj
 0001:00006953       ?SetTopLine@Editor@@IAEXH@Z 10007953 f   Editor.obj
 0001:00006982       ?PositionFromLocation@Editor@@IAEHVPoint@@@Z 10007982 f   Editor.obj
 0001:00006b76       ?PositionFromLocationClose@Editor@@IAEHVPoint@@@Z 10007b76 f   Editor.obj
 0001:00006d71       ?PositionFromLineX@Editor@@IAEHHH@Z 10007d71 f   Editor.obj
 0001:00006e90       ?AbandonPaint@Editor@@IAE_NXZ 10007e90 f   Editor.obj
 0001:00006eb7       ?RedrawRect@Editor@@IAEXVPRectangle@@@Z 10007eb7 f   Editor.obj
 0001:00006f24       ?Redraw@Editor@@IAEXXZ     10007f24 f   Editor.obj
 0001:00006f53       ?RedrawSelMargin@Editor@@IAEXH@Z 10007f53 f   Editor.obj
 0001:00006fd5       ?RectangleFromRange@Editor@@IAE?AVPRectangle@@HH@Z 10007fd5 f   Editor.obj
 0001:000070bc       ?InvalidateRange@Editor@@IAEXHH@Z 100080bc f   Editor.obj
 0001:000070ef       ?CurrentPosition@Editor@@IAEHXZ 100080ef f   Editor.obj
 0001:000070f6       ?SelectionEmpty@Editor@@IAE_NXZ 100080f6 f   Editor.obj
 0001:00007108       ?SelectionStart@Editor@@IAEHXZ 10008108 f   Editor.obj
 0001:0000711c       ?SelectionEnd@Editor@@IAEHXZ 1000811c f   Editor.obj
 0001:00007130       ?SetRectangularRange@Editor@@IAEXXZ 10008130 f   Editor.obj
 0001:00007162       ?InvalidateSelection@Editor@@IAEXHH@Z 10008162 f   Editor.obj
 0001:000071b6       ?SetSelection@Editor@@IAEXHH@Z 100081b6 f   Editor.obj
 0001:00007220       ?SetSelection@Editor@@IAEXH@Z 10008220 f   Editor.obj
 0001:00007263       ?SetEmptySelection@Editor@@IAEXH@Z 10008263 f   Editor.obj
 0001:00007284       ?RangeContainsProtected@Editor@@IBE_NHH@Z 10008284 f   Editor.obj
 0001:000072ff       ?SelectionContainsProtected@Editor@@IAE_NXZ 100082ff f   Editor.obj
 0001:00007359       ??0SelectionLineIterator@@QAE@PAVEditor@@_N@Z 10008359 f i Editor.obj
 0001:000073f3       ?Iterate@SelectionLineIterator@@QAE_NXZ 100083f3 f i Editor.obj
 0001:00007417       ?SetAt@SelectionLineIterator@@QAEXH@Z 10008417 f i Editor.obj
 0001:000074a8       ?MovePositionOutsideChar@Editor@@IAEHHH_N@Z 100084a8 f   Editor.obj
 0001:000075eb       ?MovePositionTo@Editor@@IAEHHW4selTypes@1@_N@Z 100085eb f   Editor.obj
 0001:00007668       ?MovePositionSoVisible@Editor@@IAEHHH@Z 10008668 f   Editor.obj
 0001:00007719       ?SetLastXChosen@Editor@@IAEXXZ 10008719 f   Editor.obj
 0001:0000773c       ?ScrollTo@Editor@@IAEXH_N@Z 1000873c f   Editor.obj
 0001:000077a1       ?ScrollText@Editor@@MAEXH@Z 100087a1 f   Editor.obj
 0001:000077a9       ?HorizontalScrollTo@Editor@@IAEXH@Z 100087a9 f   Editor.obj
 0001:00007801       ?MoveCaretInsideView@Editor@@IAEX_N@Z 10008801 f   Editor.obj
 0001:00007887       ?DisplayFromPosition@Editor@@IAEHH@Z 10008887 f   Editor.obj
 0001:00007952       ?EnsureCaretVisible@Editor@@IAEX_N00@Z 10008952 f   Editor.obj
 0001:00007da3       ?ShowCaretAtCurrentPosition@Editor@@IAEXXZ 10008da3 f   Editor.obj
 0001:00007ddf       ?DropCaret@Editor@@IAEXXZ  10008ddf f   Editor.obj
 0001:00007deb       ?InvalidateCaret@Editor@@IAEXXZ 10008deb f   Editor.obj
 0001:00007e13       ?NeedWrapping@Editor@@IAEXHH@Z 10008e13 f   Editor.obj
 0001:00007ea0       ?WrapLines@Editor@@IAE_N_NH@Z 10008ea0 f   Editor.obj
 0001:00008164       ?LinesJoin@Editor@@IAEXXZ  10009164 f   Editor.obj
 0001:00008212       ?StringFromEOLMode@@YAPBDH@Z 10009212 f   Editor.obj
 0001:00008231       ?LinesSplit@Editor@@IAEXH@Z 10009231 f   Editor.obj
 0001:000083ba       ?SubstituteMarkerIfEmpty@Editor@@IAEHHH@Z 100093ba f   Editor.obj
 0001:000083d4       ?PaintSelMargin@Editor@@IAEXPAVSurface@@AAVPRectangle@@@Z 100093d4 f   Editor.obj
 0001:000088d9       ?DrawTabArrow@@YAXPAVSurface@@VPRectangle@@H@Z 100098d9 f   Editor.obj
 0001:00008965       ?RetrieveLineLayout@Editor@@IAEPAVLineLayout@@H@Z 10009965 f   Editor.obj
 0001:000089e1       ?LayoutLine@Editor@@IAEXHPAVSurface@@AAVViewStyle@@PAVLineLayout@@H@Z 100099e1 f   Editor.obj
 0001:0000913f       ?SelectionBackground@Editor@@IAE?AVColourAllocated@@AAVViewStyle@@@Z 1000a13f f   Editor.obj
 0001:00009163       ?TextBackground@Editor@@IAE?AVColourAllocated@@AAVViewStyle@@_NV2@11HHPAVLineLayout@@@Z 1000a163 f   Editor.obj
 0001:000091fb       ?DrawIndentGuide@Editor@@IAEXPAVSurface@@HHHVPRectangle@@_N@Z 1000a1fb f   Editor.obj
 0001:00009265       ?DrawWrapMarker@Editor@@IAEXPAVSurface@@VPRectangle@@_NVColourAllocated@@@Z 1000a265 f   Editor.obj
 0001:00009349       ?MoveTo@Relative@?1??DrawWrapMarker@Editor@@IAEXPAVSurface@@VPRectangle@@_NVColourAllocated@@@Z@QAEXHH@Z 1000a349 f   Editor.obj
 0001:0000936f       ?LineTo@Relative@?1??DrawWrapMarker@Editor@@IAEXPAVSurface@@VPRectangle@@_NVColourAllocated@@@Z@QAEXHH@Z 1000a36f f   Editor.obj
 0001:00009395       ?DrawEOL@Editor@@IAEXPAVSurface@@AAVViewStyle@@VPRectangle@@PAVLineLayout@@HHHHH_NVColourAllocated@@45@Z 1000a395 f   Editor.obj
 0001:0000962b       ?DrawLine@Editor@@IAEXPAVSurface@@AAVViewStyle@@HHHVPRectangle@@PAVLineLayout@@H@Z 1000a62b f   Editor.obj
 0001:0000a6cc       ?RefreshPixMaps@Editor@@IAEXPAVSurface@@@Z 1000b6cc f   Editor.obj
 0001:0000a90d       ?Paint@Editor@@IAEXPAVSurface@@VPRectangle@@@Z 1000b90d f   Editor.obj
 0001:0000b2f3       ?InvertedLight@@YA?AVColourDesired@@V1@@Z 1000c2f3 f   Editor.obj
 0001:0000b38d       ?FormatRange@Editor@@IAEJ_NPAURangeToFormat@@@Z 1000c38d f   Editor.obj
 0001:0000b9a2       ??0AutoSurface@@QAE@PAXPAVEditor@@@Z 1000c9a2 f i Editor.obj
 0001:0000ba05       ?TextWidth@Editor@@IAEHHPBD@Z 1000ca05 f   Editor.obj
 0001:0000ba62       ?ReconfigureScrollBars@Editor@@MAEXXZ 1000ca62 f   Editor.obj
 0001:0000ba62       ?DebugPrintf@Platform@@SAXPBDZZ 1000ca62 f   Editor.obj
 0001:0000ba62       __fpclear                  1000ca62 f   Editor.obj
 0001:0000ba62       ?ClaimSelection@ScintillaWin@@EAEXXZ 1000ca62 f   Editor.obj
 0001:0000ba62       ?UpdateSystemCaret@Editor@@MAEXXZ 1000ca62 f   Editor.obj
 0001:0000ba62       ?StartDrag@Editor@@MAEXXZ  1000ca62 f   Editor.obj
 0001:0000ba63       ?SetScrollBars@Editor@@IAEXXZ 1000ca63 f   Editor.obj
 0001:0000baee       ?ChangeSize@Editor@@IAEXXZ 1000caee f   Editor.obj
 0001:0000bb4e       ?AddChar@Editor@@IAEXD@Z   1000cb4e f   Editor.obj
 0001:0000bb6c       ?AddCharUTF@Editor@@MAEXPADI_N@Z 1000cb6c f   Editor.obj
 0001:0000bcfe       ?ClearSelection@Editor@@IAEXXZ 1000ccfe f   Editor.obj
 0001:0000bdcc       ?ClearAll@Editor@@IAEXXZ   1000cdcc f   Editor.obj
 0001:0000be5d       ?ClearDocumentStyle@Editor@@IAEXXZ 1000ce5d f   Editor.obj
 0001:0000bea6       ?Cut@Editor@@IAEXXZ        1000cea6 f   Editor.obj
 0001:0000bed6       ?PasteRectangular@Editor@@IAEXHPBDH@Z 1000ced6 f   Editor.obj
 0001:0000c093       ?CanPaste@Editor@@MAE_NXZ  1000d093 f   Editor.obj
 0001:0000c0bc       ?Clear@Editor@@IAEXXZ      1000d0bc f   Editor.obj
 0001:0000c0fc       ?SelectAll@Editor@@IAEXXZ  1000d0fc f   Editor.obj
 0001:0000c120       ?Undo@Editor@@IAEXXZ       1000d120 f   Editor.obj
 0001:0000c166       ?Redo@Editor@@IAEXXZ       1000d166 f   Editor.obj
 0001:0000c1a5       ?DelChar@Editor@@IAEXXZ    1000d1a5 f   Editor.obj
 0001:0000c1dc       ?DelCharBack@Editor@@IAEX_N@Z 1000d1dc f   Editor.obj
 0001:0000c318       ?NotifyFocus@Editor@@MAEX_N@Z 1000d318 f   Editor.obj
 0001:0000c31b       ?NotifyStyleToNeeded@Editor@@MAEXH@Z 1000d31b f   Editor.obj
 0001:0000c35a       ?NotifyStyleNeeded@Editor@@MAEXPAVDocument@@PAXH@Z 1000d35a f   Editor.obj
 0001:0000c366       ?NotifyChar@Editor@@IAEXH@Z 1000d366 f   Editor.obj
 0001:0000c3cc       ?NotifySavePoint@Editor@@IAEX_N@Z 1000d3cc f   Editor.obj
 0001:0000c40d       ?NotifyModifyAttempt@Editor@@IAEXXZ 1000d40d f   Editor.obj
 0001:0000c444       ?NotifyDoubleClick@Editor@@MAEXVPoint@@_N@Z 1000d444 f   Editor.obj
 0001:0000c49f       ?NotifyHotSpotDoubleClicked@Editor@@IAEXH_N00@Z 1000d49f f   Editor.obj
 0001:0000c501       ?NotifyHotSpotClicked@Editor@@IAEXH_N00@Z 1000d501 f   Editor.obj
 0001:0000c563       ?NotifyUpdateUI@Editor@@IAEXXZ 1000d563 f   Editor.obj
 0001:0000c59a       ?NotifyPainted@Editor@@IAEXXZ 1000d59a f   Editor.obj
 0001:0000c5d1       ?NotifyMarginClick@Editor@@IAE_NVPoint@@_N11@Z 1000d5d1 f   Editor.obj
 0001:0000c68d       ?NotifyNeedShown@Editor@@IAEXHH@Z 1000d68d f   Editor.obj
 0001:0000c6d2       ?NotifyDwelling@Editor@@IAEXVPoint@@_N@Z 1000d6d2 f   Editor.obj
 0001:0000c72d       ?NotifyZoom@Editor@@IAEXXZ 1000d72d f   Editor.obj
 0001:0000c764       ?NotifyModifyAttempt@Editor@@MAEXPAVDocument@@PAX@Z 1000d764 f   Editor.obj
 0001:0000c76c       ?NotifyMove@Editor@@IAEXH@Z 1000d76c f   Editor.obj
 0001:0000c7ab       ?NotifySavePoint@Editor@@MAEXPAVDocument@@PAX_N@Z 1000d7ab f   Editor.obj
 0001:0000c7b7       ?CheckModificationForWrap@Editor@@IAEXVDocModification@@@Z 1000d7b7 f   Editor.obj
 0001:0000c808       ?NotifyModified@Editor@@MAEXPAVDocument@@VDocModification@@PAX@Z 1000d808 f   Editor.obj
 0001:0000cbaf       ?NotifyDeleted@Editor@@MAEXPAVDocument@@PAX@Z 1000dbaf f   Editor.obj
 0001:0000cbb2       ?NotifyMacroRecord@Editor@@IAEXIKJ@Z 1000dbb2 f   Editor.obj
 0001:0000cd45       ?PageMove@Editor@@IAEXHW4selTypes@1@_N@Z 1000dd45 f   Editor.obj
 0001:0000ce6f       ?ChangeCaseOfSelection@Editor@@IAEX_N@Z 1000de6f f   Editor.obj
 0001:0000cf17       ?LineTranspose@Editor@@IAEXXZ 1000df17 f   Editor.obj
 0001:0000d079       ?Duplicate@Editor@@IAEX_N@Z 1000e079 f   Editor.obj
 0001:0000d13c       ?CancelModes@Editor@@MAEXXZ 1000e13c f   Editor.obj
 0001:0000d144       ?NewLine@Editor@@IAEXXZ    1000e144 f   Editor.obj
 0001:0000d1ca       ?CursorUpOrDown@Editor@@IAEXHW4selTypes@1@@Z 1000e1ca f   Editor.obj
 0001:0000d24c       ?ParaUpOrDown@Editor@@IAEXHW4selTypes@1@@Z 1000e24c f   Editor.obj
 0001:0000d2fb       ?StartEndDisplayLine@Editor@@IAEHH_N@Z 1000e2fb f   Editor.obj
 0001:0000d483       ?KeyCommand@Editor@@MAEHI@Z 1000e483 f   Editor.obj
 0001:0000ddd6       ?KeyDefault@Editor@@MAEHHH@Z 1000edd6 f   Editor.obj
 0001:0000dddb       ?KeyDown@Editor@@IAEHH_N00PA_N@Z 1000eddb f   Editor.obj
 0001:0000de54       ?Indent@Editor@@IAEX_N@Z   1000ee54 f   Editor.obj
 0001:0000e154       ?FindText@Editor@@IAEJKJ@Z 1000f154 f   Editor.obj
 0001:0000e1c9       ?SearchAnchor@Editor@@IAEXXZ 1000f1c9 f   Editor.obj
 0001:0000e1d9       ?SearchText@Editor@@IAEJIKJ@Z 1000f1d9 f   Editor.obj
 0001:0000e2ad       ?SearchInTarget@Editor@@IAEJPBDH@Z 1000f2ad f   Editor.obj
 0001:0000e327       ?GoToLine@Editor@@IAEXH@Z  1000f327 f   Editor.obj
 0001:0000e37c       ?CopyRange@Editor@@IAEPADHH@Z 1000f37c f   Editor.obj
 0001:0000e3e4       ?CopySelectionFromRange@Editor@@IAEXPAVSelectionText@@HH@Z 1000f3e4 f   Editor.obj
 0001:0000e447       ?CopySelectionRange@Editor@@IAEXPAVSelectionText@@@Z 1000f447 f   Editor.obj
 0001:0000e5b8       ?CopyRangeToClipboard@Editor@@IAEXHH@Z 1000f5b8 f   Editor.obj
 0001:0000e663       ?CopyText@Editor@@IAEXHPBD@Z 1000f663 f   Editor.obj
 0001:0000e6b8       ?Copy@SelectionText@@QAEXPBDHHH_N@Z 1000f6b8 f i Editor.obj
 0001:0000e70e       ?SetDragPosition@Editor@@IAEXH@Z 1000f70e f   Editor.obj
 0001:0000e764       ?DisplayCursor@Editor@@MAEXW4Cursor@Window@@@Z 1000f764 f   Editor.obj
 0001:0000e781       ?DropAt@Editor@@IAEXHPBD_N1@Z 1000f781 f   Editor.obj
 0001:0000e8ec       ?PositionInSelection@Editor@@IAEHH@Z 1000f8ec f   Editor.obj
 0001:0000e96c       ?PointInSelection@Editor@@IAE_NVPoint@@@Z 1000f96c f   Editor.obj
 0001:0000ea12       ?PointInSelMargin@Editor@@IAE_NVPoint@@@Z 1000fa12 f   Editor.obj
 0001:0000ea68       ?LineSelection@Editor@@IAEXHH@Z 1000fa68 f   Editor.obj
 0001:0000eac0       ?DwellEnd@Editor@@IAEX_N@Z 1000fac0 f   Editor.obj
 0001:0000eb10       ?ButtonDown@Editor@@MAEXVPoint@@I_N11@Z 1000fb10 f   Editor.obj
 0001:0000ef15       ?PositionIsHotspot@Editor@@IAE_NH@Z 1000ff15 f   Editor.obj
 0001:0000ef4e       ?PointIsHotspot@Editor@@IAE_NVPoint@@@Z 1000ff4e f   Editor.obj
 0001:0000ef73       ?SetHotSpotRange@Editor@@IAEXPAVPoint@@@Z 1000ff73 f   Editor.obj
 0001:0000f035       ?GetHotSpotRange@Editor@@IAEXAAH0@Z 10010035 f   Editor.obj
 0001:0000f050       ?ButtonMove@Editor@@IAEXVPoint@@@Z 10010050 f   Editor.obj
 0001:0000f2c0       ?ButtonUp@Editor@@IAEXVPoint@@I_N@Z 100102c0 f   Editor.obj
 0001:0000f471       ?Tick@Editor@@IAEXXZ       10010471 f   Editor.obj
 0001:0000f527       ?Idle@Editor@@IAE_NXZ      10010527 f   Editor.obj
 0001:0000f55c       ?SetFocusState@Editor@@IAEX_N@Z 1001055c f   Editor.obj
 0001:0000f593       ?PaintContains@Editor@@MAE_NVPRectangle@@@Z 10010593 f   Editor.obj
 0001:0000f5cd       ?PaintContainsMargin@Editor@@IAE_NXZ 100105cd f   Editor.obj
 0001:0000f607       ?CheckForChangeOutsidePaint@Editor@@IAEXVRange@@@Z 10010607 f   Editor.obj
 0001:0000f688       ?SetBraceHighlight@Editor@@IAEXHHH@Z 10010688 f   Editor.obj
 0001:0000f727       ?SetDocPointer@Editor@@IAEXPAVDocument@@@Z 10010727 f   Editor.obj
 0001:0000f800       ?Expand@Editor@@IAEXAAH_N@Z 10010800 f   Editor.obj
 0001:0000f87c       ?ToggleContraction@Editor@@IAEXH@Z 1001087c f   Editor.obj
 0001:0000f981       ?EnsureLineVisible@Editor@@IAEXH_N@Z 10010981 f   Editor.obj
 0001:0000fb13       ?ReplaceTarget@Editor@@IAEH_NPBDH@Z 10010b13 f   Editor.obj
 0001:0000fbb8       ?IsUnicodeMode@Editor@@QBE_NXZ 10010bb8 f   Editor.obj
 0001:0000fbd5       ?CodePage@Editor@@IBEHXZ   10010bd5 f   Editor.obj
 0001:0000fbe9       ?WrapCount@Editor@@IAEHH@Z 10010be9 f   Editor.obj
 0001:0000fc50       ?WndProc@Editor@@UAEJIKJ@Z 10010c50 f   Editor.obj
 0001:00012748       ?WordListsToStrings@@YAPAPADQAPAVWordList@@@Z 10013748 f   ExternalLexer.obj
 0001:0001283c       ?DeleteWLStrings@@YAXQAPAD@Z 1001383c f   ExternalLexer.obj
 0001:00012865       ?Lex@ExternalLexerModule@@UBEXIHHQAPAVWordList@@AAVAccessor@@@Z 10013865 f   ExternalLexer.obj
 0001:000128b9       ?Fold@ExternalLexerModule@@UBEXIHHQAPAVWordList@@AAVAccessor@@@Z 100138b9 f   ExternalLexer.obj
 0001:0001290d       ?SetExternal@ExternalLexerModule@@UAEXP6GXIIHHQAPADPAXPAD@Z3H@Z 1001390d f   ExternalLexer.obj
 0001:00012925       ??0LexerLibrary@@QAE@PBD@Z 10013925 f   ExternalLexer.obj
 0001:00012a6f       ??_GExternalLexerModule@@UAEPAXI@Z 10013a6f f i ExternalLexer.obj
 0001:00012a6f       ??_GLexerModule@@UAEPAXI@Z 10013a6f f i ExternalLexer.obj
 0001:00012a6f       ??_ELexerModule@@UAEPAXI@Z 10013a6f f i ExternalLexer.obj
 0001:00012a6f       ??_EExternalLexerModule@@UAEPAXI@Z 10013a6f f i ExternalLexer.obj
 0001:00012a8c       ??1LexerLibrary@@QAE@XZ    10013a8c f   ExternalLexer.obj
 0001:00012ab7       ?Release@LexerLibrary@@QAEXXZ 10013ab7 f   ExternalLexer.obj
 0001:00012aeb       ?GetInstance@LexerManager@@SAPAV1@XZ 10013aeb f   ExternalLexer.obj
 0001:00012b11       ?DeleteInstance@LexerManager@@SAXXZ 10013b11 f   ExternalLexer.obj
 0001:00012b38       ??0LexerManager@@AAE@XZ    10013b38 f   ExternalLexer.obj
 0001:00012b42       ??1LexerManager@@QAE@XZ    10013b42 f   ExternalLexer.obj
 0001:00012b47       ?Load@LexerManager@@QAEXPBD@Z 10013b47 f   ExternalLexer.obj
 0001:00012b53       ?LoadLexerLibrary@LexerManager@@AAEXPBD@Z 10013b53 f   ExternalLexer.obj
 0001:00012b87       ?Clear@LexerManager@@QAEXXZ 10013b87 f   ExternalLexer.obj
 0001:00012bb6       ??1LMMinder@@QAE@XZ        10013bb6 f   ExternalLexer.obj
 0001:00012bdc       ?Draw@Indicator@@QAEXPAVSurface@@ABVPRectangle@@1@Z 10013bdc f   Indicator.obj
 0001:00012e20       ??0KeyMap@@QAE@XZ          10013e20 f   KeyMap.obj
 0001:00012e59       ??1KeyMap@@QAE@XZ          10013e59 f   KeyMap.obj
 0001:00012e5e       ?Clear@KeyMap@@QAEXXZ      10013e5e f   KeyMap.obj
 0001:00012e75       ?AssignCmdKey@KeyMap@@QAEXHHI@Z 10013e75 f   KeyMap.obj
 0001:00012f2f       ?Find@KeyMap@@QAEIHH@Z     10013f2f f   KeyMap.obj
 0001:00012f67       ??0LexerModule@@QAE@HP6AXIHHQAPAVWordList@@AAVAccessor@@@ZPBD2QBQBDH@Z 10013f67 f   KeyWords.obj
 0001:00012fc0       ?GetStyleBitsNeeded@LexerModule@@QBEHXZ 10013fc0 f   KeyWords.obj
 0001:00012fc4       ?Find@LexerModule@@SAPBV1@H@Z 10013fc4 f   KeyWords.obj
 0001:00012fde       ?Find@LexerModule@@SAPBV1@PBD@Z 10013fde f   KeyWords.obj
 0001:00013014       ?Lex@LexerModule@@UBEXIHHQAPAVWordList@@AAVAccessor@@@Z 10014014 f   KeyWords.obj
 0001:00013036       ?Fold@LexerModule@@UBEXIHHQAPAVWordList@@AAVAccessor@@@Z 10014036 f   KeyWords.obj
 0001:00013093       ?Scintilla_LinkLexers@@YAHXZ 10014093 f   KeyWords.obj
 0001:00013422       ??0StyleContext@@QAE@IIHAAVAccessor@@D@Z 10014422 f i LexAda.obj
 0001:000134bb       ?GetNextChar@StyleContext@@AAEXI@Z 100144bb f i LexAda.obj
 0001:00013533       ?Complete@StyleContext@@QAEXXZ 10014533 f i LexAda.obj
 0001:00013545       ?Forward@StyleContext@@QAEXXZ 10014545 f i LexAda.obj
 0001:00013598       ?SetState@StyleContext@@QAEXH@Z 10014598 f i LexAda.obj
 0001:00013625       ?ForwardSetState@StyleContext@@QAEXH@Z 10014625 f i LexAda.obj
 0001:00014800       ?Match@StyleContext@@QAE_NPBD@Z 10015800 f i LexAIPI.obj
 0001:00014847       ?isoperator@@YA_ND@Z       10015847 f i LexAIPI.obj
 0001:000148df       ??0SetOfCharacters@@QAE@PBDH_N@Z 100158df f i LexAIPI.obj
 0001:00014ede       ?iswordchar@@YA_ND@Z       10015ede f i LexAIPIBullant.obj
 0001:00014f09       ?iswordstart@@YA_ND@Z      10015f09 f i LexAIPIBullant.obj
 0001:00016f4e       ?isAveOperator@@YA_ND@Z    10017f4e f i LexAVE.obj
 0001:00017519       ?MatchIgnoreCase@StyleContext@@QAE_NPBD@Z 10018519 f i LexBaan.obj
 0001:00017767       ??0HereDocCls@?1??ColouriseBashDoc@@YAXIHHQAPAVWordList@@AAVAccessor@@@Z@QAE@XZ 10018767 f   LexBash.obj
 0001:00017790       ?New@QuoteCls@?1??ColourisePerlDoc@@YAXIHHQAPAVWordList@@AAVAccessor@@@Z@QAEXH@Z 10018790 f   LexBash.obj
 0001:00017790       ?New@QuoteCls@?1??ColouriseBashDoc@@YAXIHHQAPAVWordList@@AAVAccessor@@@Z@QAEXH@Z 10018790 f   LexBash.obj
 0001:000177a4       ?Open@QuoteCls@?1??ColouriseBashDoc@@YAXIHHQAPAVWordList@@AAVAccessor@@@Z@QAEXD@Z 100187a4 f   LexBash.obj
 0001:0001940a       ?ColouriseCamlDoc@@YAXIHHQAPAVWordList@@AAVAccessor@@@Z 1001a40a f   LexCaml.obj
 0001:00019998       ?IsADigit@@YA_NII@Z        1001a998 f i LexCaml.obj
 0001:000199de       ?FoldCamlDoc@@YAXIHHQAPAVWordList@@AAVAccessor@@@Z 1001a9de f   LexCaml.obj
 0001:0001a06f       ??0WordList@@QAE@_N@Z      1001b06f f i LexCLW.obj
 0001:0001a0b9       ?SetNumericConstantState@@YA_NAAVStyleContext@@@Z 1001b0b9 f i LexCLW.obj
 0001:0001a104       ?GetNextWordUpper@@YA_NAAVAccessor@@IHPAD@Z 1001b104 f i LexCLW.obj
 0001:0001c40f       ?IsCssOperator@@YA_ND@Z    1001d40f f i LexCSS.obj
 0001:0001e132       ?is_whitespace@@YA_NH@Z    1001f132 f   LexForth.obj
 0001:0001e151       ?getChar@@YAD_N@Z          1001f151 f   LexForth.obj
 0001:0001e182       ?is_eol@@YA_ND@Z           1001f182 f   LexForth.obj
 0001:0001e182       ?IsLineEndChar@@YA_ND@Z    1001f182 f   LexForth.obj
 0001:0001e197       ?parse@@YAHD_N@Z           1001f197 f   LexForth.obj
 0001:0001e28a       ?_is_number@@YA_NPADH@Z    1001f28a f   LexForth.obj
 0001:0001e2bc       ?is_number@@YA_NPAD@Z      1001f2bc f   LexForth.obj
 0001:0001e6ae       ?GetContinuedPos@@YAIIAAVAccessor@@@Z 1001f6ae f   LexFortran.obj
 0001:0001fa1f       ?isGCOperator@@YA_NH@Z     10020a1f f i LexGui4Cli.obj
 0001:00025fdd       ?isMMIXALOperator@@YA_ND@Z 10026fdd f i LexMMIXAL.obj
 0001:000261a9       ??0SString@@QAE@PBD@Z      100271a9 f i LexMPT.obj
 0001:00027d3f       ?HandleString@@YA_NAAIIAAVAccessor@@@Z 10028d3f f i LexOpal.obj
 0001:00027dc8       ?HandleCommentBlock@@YA_NAAIIAAVAccessor@@_N@Z 10028dc8 f i LexOpal.obj
 0001:00027e71       ?HandleCommentLine@@YA_NAAIIAAVAccessor@@_N@Z 10028e71 f i LexOpal.obj
 0001:00027f31       ?HandlePar@@YA_NAAIAAVAccessor@@@Z 10028f31 f i LexOpal.obj
 0001:00027f57       ?HandleSpace@@YA_NAAIIAAVAccessor@@@Z 10028f57 f i LexOpal.obj
 0001:00027fb9       ?HandleInteger@@YA_NAAIIAAVAccessor@@@Z 10028fb9 f i LexOpal.obj
 0001:00028019       ?HandleWord@@YA_NAAIIAAVAccessor@@QAPAVWordList@@@Z 10029019 f i LexOpal.obj
 0001:0002a86f       ?MatchUpperCase@@YA_NAAVAccessor@@HPBD@Z 1002b86f f   LexPB.obj
 0001:0002ad62       ??0HereDocCls@?1??ColourisePerlDoc@@YAXIHHQAPAVWordList@@AAVAccessor@@@Z@QAE@XZ 1002bd62 f   LexPerl.obj
 0001:0002ad88       ??1HereDocCls@?1??ColouriseBashDoc@@YAXIHHQAPAVWordList@@AAVAccessor@@@Z@QAE@XZ 1002bd88 f   LexPerl.obj
 0001:0002ad88       ??1HereDocCls@?1??ColourisePerlDoc@@YAXIHHQAPAVWordList@@AAVAccessor@@@Z@QAE@XZ 1002bd88 f   LexPerl.obj
 0001:0002ad92       ??0QuoteCls@?1??ColouriseBashDoc@@YAXIHHQAPAVWordList@@AAVAccessor@@@Z@QAE@XZ 1002bd92 f   LexPerl.obj
 0001:0002ad92       ??0QuoteCls@?1??ColourisePerlDoc@@YAXIHHQAPAVWordList@@AAVAccessor@@@Z@QAE@XZ 1002bd92 f   LexPerl.obj
 0001:0002ada0       ?Open@QuoteCls@?1??ColourisePerlDoc@@YAXIHHQAPAVWordList@@AAVAccessor@@@Z@QAEXD@Z 1002bda0 f   LexPerl.obj
 0001:0002ed80       ??0HereDocCls@?1??ColouriseRbDoc@@YAXIHHQAPAVWordList@@AAVAccessor@@@Z@QAE@XZ 1002fd80 f   LexRuby.obj
 0001:0002ed93       ??0QuoteCls@?1??ColouriseRbDoc@@YAXIHHQAPAVWordList@@AAVAccessor@@@Z@QAE@XZ 1002fd93 f   LexRuby.obj
 0001:0002ed9f       ?New@QuoteCls@?1??ColouriseRbDoc@@YAXIHHQAPAVWordList@@AAVAccessor@@@Z@QAEXXZ 1002fd9f f   LexRuby.obj
 0001:0002edaa       ?Open@QuoteCls@?1??ColouriseRbDoc@@YAXIHHQAPAVWordList@@AAVAccessor@@@Z@QAEXD@Z 1002fdaa f   LexRuby.obj
 0001:00036d6a       ?RefreshColourPalette@LineMarker@@QAEXAAVPalette@@_N@Z 10037d6a f   LineMarker.obj
 0001:00036da5       ?SetXPM@LineMarker@@QAEXPBD@Z 10037da5 f   LineMarker.obj
 0001:00036dea       ?Draw@LineMarker@@QAEXPAVSurface@@AAVPRectangle@@AAVSFont@@@Z 10037dea f   LineMarker.obj
 0001:00037715       ?IsNT@@YA_NXZ              10038715 f   PlatWin.obj
 0001:0003771b       ?FromLong@Point@@SA?AV1@J@Z 1003871b f   PlatWin.obj
 0001:00037732       ??0Palette@@QAE@XZ         10038732 f   PlatWin.obj
 0001:00037776       ??_FColourPair@@QAEXXZ     10038776 f i PlatWin.obj
 0001:00037781       ??1Palette@@QAE@XZ         10038781 f   PlatWin.obj
 0001:00037798       ?Release@Palette@@QAEXXZ   10038798 f   PlatWin.obj
 0001:000377ef       ?WantFind@Palette@@QAEXAAUColourPair@@_N@Z 100387ef f   PlatWin.obj
 0001:000378e8       ?Allocate@Palette@@QAEXAAVWindow@@@Z 100388e8 f   PlatWin.obj
 0001:00037996       ??0FontCached@@AAE@PBDHH_N1@Z 10038996 f   PlatWin.obj
 0001:00037a86       ??_EFontCached@@EAEPAXI@Z  10038a86 f i PlatWin.obj
 0001:00037a86       ??_GFontCached@@EAEPAXI@Z  10038a86 f i PlatWin.obj
 0001:00037aa8       ?SameAs@FontCached@@AAE_NPBDHH_N1@Z 10038aa8 f   PlatWin.obj
 0001:00037b07       ?Release@FontCached@@EAEXXZ 10038b07 f   PlatWin.obj
 0001:00037b1e       ?FindOrCreate@FontCached@@SAPAXPBDHH_N1@Z 10038b1e f   PlatWin.obj
 0001:00037bd9       ?ReleaseId@FontCached@@SAXPAX@Z 10038bd9 f   PlatWin.obj
 0001:00037c31       ??0SFont@@QAE@XZ           10038c31 f   PlatWin.obj
 0001:00037c3e       ??_ESFont@@UAEPAXI@Z       10038c3e f i PlatWin.obj
 0001:00037c3e       ??_GSFont@@UAEPAXI@Z       10038c3e f i PlatWin.obj
 0001:00037c5a       ??1SFont@@UAE@XZ           10038c5a f   PlatWin.obj
 0001:00037c61       ?Create@SFont@@UAEXPBDHH_N11@Z 10038c61 f   PlatWin.obj
 0001:00037c8b       ?Release@SFont@@UAEXXZ     10038c8b f   PlatWin.obj
 0001:00037ca2       ??0SurfaceImpl@@QAE@XZ     10038ca2 f   PlatWin.obj
 0001:00037d09       ??_ESurfaceImpl@@UAEPAXI@Z 10038d09 f i PlatWin.obj
 0001:00037d09       ??_GSurfaceImpl@@UAEPAXI@Z 10038d09 f i PlatWin.obj
 0001:00037d25       ??1SurfaceImpl@@UAE@XZ     10038d25 f   PlatWin.obj
 0001:00037d3b       ??_ESurface@@UAEPAXI@Z     10038d3b f i PlatWin.obj
 0001:00037d3b       ??_GSurface@@UAEPAXI@Z     10038d3b f i PlatWin.obj
 0001:00037d58       ?Release@SurfaceImpl@@UAEXXZ 10038d58 f   PlatWin.obj
 0001:00037df6       ?Initialised@SurfaceImpl@@UAE_NXZ 10038df6 f   PlatWin.obj
 0001:00037dff       ?Init@SurfaceImpl@@UAEXPAX@Z 10038dff f   PlatWin.obj
 0001:00037e23       ?Init@SurfaceImpl@@UAEXPAX0@Z 10038e23 f   PlatWin.obj
 0001:00037e3f       ?InitPixMap@SurfaceImpl@@UAEXHHPAVSurface@@PAX@Z 10038e3f f   PlatWin.obj
 0001:00037e8d       ?PenColour@SurfaceImpl@@UAEXVColourAllocated@@@Z 10038e8d f   PlatWin.obj
 0001:00037ed5       ?BrushColor@SurfaceImpl@@AAEXVColourAllocated@@@Z 10038ed5 f   PlatWin.obj
 0001:00037f23       ?SetFont@SurfaceImpl@@AAEXAAVSFont@@@Z 10038f23 f   PlatWin.obj
 0001:00037f59       ?LogPixelsY@SurfaceImpl@@UAEHXZ 10038f59 f   PlatWin.obj
 0001:00037f65       ?DeviceHeightFont@SurfaceImpl@@UAEHH@Z 10038f65 f   PlatWin.obj
 0001:00037f7a       ?MoveTo@SurfaceImpl@@UAEXHH@Z 10038f7a f   PlatWin.obj
 0001:00037f90       ?LineTo@SurfaceImpl@@UAEXHH@Z 10038f90 f   PlatWin.obj
 0001:00037fa4       ?Polygon@SurfaceImpl@@UAEXPAVPoint@@HVColourAllocated@@1@Z 10038fa4 f   PlatWin.obj
 0001:00037fd0       ?RectangleDraw@SurfaceImpl@@UAEXVPRectangle@@VColourAllocated@@1@Z 10038fd0 f   PlatWin.obj
 0001:00038002       ?FillRectangle@SurfaceImpl@@UAEXVPRectangle@@VColourAllocated@@@Z 10039002 f   PlatWin.obj
 0001:00038099       ?FillRectangle@SurfaceImpl@@UAEXVPRectangle@@AAVSurface@@@Z 10039099 f   PlatWin.obj
 0001:0003810f       ?RoundedRectangle@SurfaceImpl@@UAEXVPRectangle@@VColourAllocated@@1@Z 1003910f f   PlatWin.obj
 0001:00038149       ?AlphaRectangle@SurfaceImpl@@UAEXVPRectangle@@HVColourAllocated@@H1HH@Z 10039149 f   PlatWin.obj
 0001:00038409       ?Ellipse@SurfaceImpl@@UAEXVPRectangle@@VColourAllocated@@1@Z 10039409 f   PlatWin.obj
 0001:0003843b       ?Copy@SurfaceImpl@@UAEXVPRectangle@@VPoint@@AAVSurface@@@Z 1003943b f   PlatWin.obj
 0001:00038470       ?DrawTextCommon@SurfaceImpl@@QAEXVPRectangle@@AAVSFont@@HPBDHI@Z 10039470 f   PlatWin.obj
 0001:0003867a       ?DrawTextNoClip@SurfaceImpl@@UAEXVPRectangle@@AAVSFont@@HPBDHVColourAllocated@@3@Z 1003967a f   PlatWin.obj
 0001:000386c2       ?DrawTextClipped@SurfaceImpl@@UAEXVPRectangle@@AAVSFont@@HPBDHVColourAllocated@@3@Z 100396c2 f   PlatWin.obj
 0001:0003870a       ?DrawTextTransparent@SurfaceImpl@@UAEXVPRectangle@@AAVSFont@@HPBDHVColourAllocated@@@Z 1003970a f   PlatWin.obj
 0001:00038772       ?WidthText@SurfaceImpl@@UAEHAAVSFont@@PBDH@Z 10039772 f   PlatWin.obj
 0001:00038849       ?MeasureWidths@SurfaceImpl@@UAEXAAVSFont@@PBDHPAH@Z 10039849 f   PlatWin.obj
 0001:00038aa9       ?WidthChar@SurfaceImpl@@UAEHAAVSFont@@D@Z 10039aa9 f   PlatWin.obj
 0001:00038ad4       ?Ascent@SurfaceImpl@@UAEHAAVSFont@@@Z 10039ad4 f   PlatWin.obj
 0001:00038afa       ?Descent@SurfaceImpl@@UAEHAAVSFont@@@Z 10039afa f   PlatWin.obj
 0001:00038b20       ?InternalLeading@SurfaceImpl@@UAEHAAVSFont@@@Z 10039b20 f   PlatWin.obj
 0001:00038b46       ?ExternalLeading@SurfaceImpl@@UAEHAAVSFont@@@Z 10039b46 f   PlatWin.obj
 0001:00038b6c       ?Height@SurfaceImpl@@UAEHAAVSFont@@@Z 10039b6c f   PlatWin.obj
 0001:00038b92       ?AverageCharWidth@SurfaceImpl@@UAEHAAVSFont@@@Z 10039b92 f   PlatWin.obj
 0001:00038bb8       ?SetPalette@SurfaceImpl@@UAEHPAVPalette@@_N@Z 10039bb8 f   PlatWin.obj
 0001:00038bff       ?SetClip@SurfaceImpl@@UAEXVPRectangle@@@Z 10039bff f   PlatWin.obj
 0001:00038c1b       ?FlushCachedState@SurfaceImpl@@UAEXXZ 10039c1b f   PlatWin.obj
 0001:00038c27       ?SetUnicodeMode@SurfaceImpl@@UAEX_N@Z 10039c27 f   PlatWin.obj
 0001:00038c31       ?SetDBCSMode@SurfaceImpl@@UAEXH@Z 10039c31 f   PlatWin.obj
 0001:00038c5d       ?Allocate@Surface@@SAPAV1@XZ 10039c5d f   PlatWin.obj
 0001:00038c74       ??1Window@@UAE@XZ          10039c74 f   PlatWin.obj
 0001:00038c7b       ?Destroy@Window@@QAEXXZ    10039c7b f   PlatWin.obj
 0001:00038c92       ?GetPosition@Window@@QAE?AVPRectangle@@XZ 10039c92 f   PlatWin.obj
 0001:00038cc3       ?SetPosition@Window@@QAEXVPRectangle@@@Z 10039cc3 f   PlatWin.obj
 0001:00038ceb       ?SetPositionRelative@Window@@QAEXVPRectangle@@V1@@Z 10039ceb f   PlatWin.obj
 0001:00038d6b       ?GetClientPosition@Window@@QAE?AVPRectangle@@XZ 10039d6b f   PlatWin.obj
 0001:00038daf       ?Show@Window@@QAEX_N@Z     10039daf f   PlatWin.obj
 0001:00038dc8       ?InvalidateAll@Window@@QAEXXZ 10039dc8 f   PlatWin.obj
 0001:00038dd6       ?InvalidateRectangle@Window@@QAEXVPRectangle@@@Z 10039dd6 f   PlatWin.obj
 0001:00038e22       ?SetFont@Window@@UAEXAAVSFont@@@Z 10039e22 f   PlatWin.obj
 0001:00038e54       ?SetCursor@Window@@QAEXW4Cursor@1@@Z 10039e54 f   PlatWin.obj
 0001:00038f22       ?AllocWord@LineToItem@@AAEPADPBD@Z 10039f22 f   PlatWin.obj
 0001:00038fab       ?AllocItem@LineToItem@@QAEPAUListItemData@@XZ 10039fab f   PlatWin.obj
 0001:00039004       ?Append@LineToItem@@QAEPAUListItemData@@PBDH@Z 1003a004 f   PlatWin.obj
 0001:0003902a       ??0ListBox@@QAE@XZ         1003a02a f   PlatWin.obj
 0001:0003903b       ??_GListBox@@UAEPAXI@Z     1003a03b f i PlatWin.obj
 0001:0003903b       ??_EListBox@@UAEPAXI@Z     1003a03b f i PlatWin.obj
 0001:00039057       ??1ListBox@@UAE@XZ         1003a057 f   PlatWin.obj
 0001:000390a4       ?Allocate@ListBox@@SAPAV1@XZ 1003a0a4 f   PlatWin.obj
 0001:000390be       ??0ListBoxX@@QAE@XZ        1003a0be f i PlatWin.obj
 0001:00039140       ??0LineToItem@@QAE@XZ      1003a140 f i PlatWin.obj
 0001:00039156       ?SetDoubleClickAction@ListBoxX@@UAEXP6AXPAX@Z0@Z 1003a156 f i PlatWin.obj
 0001:00039167       ??_GListBoxX@@UAEPAXI@Z    1003a167 f i PlatWin.obj
 0001:00039167       ??_EListBoxX@@UAEPAXI@Z    1003a167 f i PlatWin.obj
 0001:00039183       ??1ListBoxX@@UAE@XZ        1003a183 f i PlatWin.obj
 0001:000391b7       ?Clear@LineToItem@@QAEXXZ  1003a1b7 f i PlatWin.obj
 0001:000391e2       ?Create@ListBoxX@@UAEXAAVWindow@@HVPoint@@H_N@Z 1003a1e2 f   PlatWin.obj
 0001:00039263       ?SetFont@ListBoxX@@UAEXAAVSFont@@@Z 1003a263 f   PlatWin.obj
 0001:000392b5       ?SetAverageCharWidth@ListBoxX@@UAEXH@Z 1003a2b5 f   PlatWin.obj
 0001:000392bf       ?SetVisibleRows@ListBoxX@@UAEXH@Z 1003a2bf f   PlatWin.obj
 0001:000392c9       ?GetVisibleRows@ListBoxX@@UBEHXZ 1003a2c9 f   PlatWin.obj
 0001:000392cd       ?LinesInDoc@ContractionState@@QBEHXZ 1003a2cd f   PlatWin.obj
 0001:000392cd       ?GetHWND@ListBoxX@@ABEPAUHWND__@@XZ 1003a2cd f   PlatWin.obj
 0001:000392d1       ?GetDesiredRect@ListBoxX@@UAE?AVPRectangle@@XZ 1003a2d1 f   PlatWin.obj
 0001:00039432       ?TextOffset@ListBoxX@@ABEHXZ 1003a432 f   PlatWin.obj
 0001:00039451       ?CaretFromEdge@ListBoxX@@UAEHXZ 1003a451 f   PlatWin.obj
 0001:00039488       ?Clear@ListBoxX@@UAEXXZ    1003a488 f   PlatWin.obj
 0001:000394af       ?Append@ListBoxX@@UAEXPADH@Z 1003a4af f   PlatWin.obj
 0001:000394f9       ?Length@ListBoxX@@UAEHXZ   1003a4f9 f   PlatWin.obj
 0001:000394fd       ?Select@ListBoxX@@UAEXH@Z  1003a4fd f   PlatWin.obj
 0001:00039533       ?GetSelection@ListBoxX@@UAEHXZ 1003a533 f   PlatWin.obj
 0001:00039546       ?Find@ListBoxX@@UAEHPBD@Z  1003a546 f   PlatWin.obj
 0001:0003954c       ?GetValue@ListBoxX@@UAEXHPADH@Z 1003a54c f   PlatWin.obj
 0001:00039592       ?RegisterImage@ListBoxX@@UAEXHPBD@Z 1003a592 f   PlatWin.obj
 0001:000395a5       ?ClearRegisteredImages@ListBoxX@@UAEXXZ 1003a5a5 f   PlatWin.obj
 0001:000395ad       ?Draw@ListBoxX@@QAEXPAUtagDRAWITEMSTRUCT@@@Z 1003a5ad f   PlatWin.obj
 0001:000397b8       ?AppendListItem@ListBoxX@@AAEXPBD0@Z 1003a7b8 f   PlatWin.obj
 0001:0003980e       ?SetList@ListBoxX@@UAEXPBDDD@Z 1003a80e f   PlatWin.obj
 0001:000398f1       ?AdjustWindowRect@ListBoxX@@ABEXPAVPRectangle@@@Z 1003a8f1 f   PlatWin.obj
 0001:0003990a       ?ItemHeight@ListBoxX@@ABEHXZ 1003a90a f   PlatWin.obj
 0001:00039932       ?MinClientWidth@ListBoxX@@ABEHXZ 1003a932 f   PlatWin.obj
 0001:00039949       ?MinTrackSize@ListBoxX@@ABE?AVPoint@@XZ 1003a949 f   PlatWin.obj
 0001:00039994       ?MaxTrackSize@ListBoxX@@ABE?AVPoint@@XZ 1003a994 f   PlatWin.obj
 0001:00039a04       ?SetRedraw@ListBoxX@@AAEX_N@Z 1003aa04 f   PlatWin.obj
 0001:00039a32       ?ResizeToCursor@ListBoxX@@AAEXXZ 1003aa32 f   PlatWin.obj
 0001:00039b7b       ?StartResize@ListBoxX@@AAEXI@Z 1003ab7b f   PlatWin.obj
 0001:00039c1f       ?NcHitTest@ListBoxX@@ABEHIJ@Z 1003ac1f f   PlatWin.obj
 0001:00039cdf       ?OnDoubleClick@ListBoxX@@AAEXXZ 1003acdf f   PlatWin.obj
 0001:00039ced       ?GetClientExtent@ListBoxX@@ABE?AVPoint@@XZ 1003aced f   PlatWin.obj
 0001:00039d14       ?CentreItem@ListBoxX@@AAEXH@Z 1003ad14 f   PlatWin.obj
 0001:00039d87       ?Paint@ListBoxX@@AAEXPAUHDC__@@@Z 1003ad87 f   PlatWin.obj
 0001:00039e3e       ?ControlWndProc@ListBoxX@@CGJPAUHWND__@@IIJ@Z 1003ae3e f   PlatWin.obj
 0001:00039f50       ?WndProc@ListBoxX@@QAEJPAUHWND__@@IIJ@Z 1003af50 f   PlatWin.obj
 0001:0003a193       ?StaticWndProc@ListBoxX@@SGJPAUHWND__@@IIJ@Z 1003b193 f   PlatWin.obj
 0001:0003a1e7       ?ListBoxX_Unregister@@YA_NXZ 1003b1e7 f   PlatWin.obj
 0001:0003a1ff       ?CreatePopUp@Menu@@QAEXXZ  1003b1ff f   PlatWin.obj
 0001:0003a211       ?Destroy@Menu@@QAEXXZ      1003b211 f   PlatWin.obj
 0001:0003a226       ?Show@Menu@@QAEXVPoint@@AAVWindow@@@Z 1003b226 f   PlatWin.obj
 0001:0003a254       ?Load@DynamicLibrary@@SAPAV1@PBD@Z 1003b254 f   PlatWin.obj
 0001:0003a27e       ?FindFunction@DynamicLibraryImpl@@UAEPAXPBD@Z 1003b27e f i PlatWin.obj
 0001:0003a297       ?IsValid@DynamicLibraryImpl@@UAE_NXZ 1003b297 f i PlatWin.obj
 0001:0003a2a0       ??_GDynamicLibraryImpl@@UAEPAXI@Z 1003b2a0 f i PlatWin.obj
 0001:0003a2a0       ??_EDynamicLibraryImpl@@UAEPAXI@Z 1003b2a0 f i PlatWin.obj
 0001:0003a2d1       ??_GDynamicLibrary@@UAEPAXI@Z 1003b2d1 f i PlatWin.obj
 0001:0003a2d1       ??_EDynamicLibrary@@UAEPAXI@Z 1003b2d1 f i PlatWin.obj
 0001:0003a2ee       ?Chrome@Platform@@SA?AVColourDesired@@XZ 1003b2ee f   PlatWin.obj
 0001:0003a2ff       ?ChromeHighlight@Platform@@SA?AVColourDesired@@XZ 1003b2ff f   PlatWin.obj
 0001:0003a310       ?DefaultFont@Platform@@SAPBDXZ 1003b310 f   PlatWin.obj
 0001:0003a316       ?DefaultFontSize@Platform@@SAHXZ 1003b316 f   PlatWin.obj
 0001:0003a31a       ?DoubleClickTime@Platform@@SAIXZ 1003b31a f   PlatWin.obj
 0001:0003a320       ?MouseButtonBounce@Platform@@SA_NXZ 1003b320 f   PlatWin.obj
 0001:0003a323       ?IsKeyDown@Platform@@SA_NH@Z 1003b323 f   PlatWin.obj
 0001:0003a334       ?IsDBCSLeadByte@Platform@@SA_NHD@Z 1003b334 f   PlatWin.obj
 0001:0003a349       ?DBCSCharLength@Platform@@SAHHPBD@Z 1003b349 f   PlatWin.obj
 0001:0003a367       ?DBCSCharMaxLength@Platform@@SAHXZ 1003b367 f   PlatWin.obj
 0001:0003a36b       ?Minimum@Platform@@SAHHH@Z 1003b36b f   PlatWin.obj
 0001:0003a37a       ?Maximum@Platform@@SAHHH@Z 1003b37a f   PlatWin.obj
 0001:0003a389       ?ShowAssertionPopUps@Platform@@SA_N_N@Z 1003b389 f   PlatWin.obj
 0001:0003a399       ?Clamp@Platform@@SAHHHH@Z  1003b399 f   PlatWin.obj
 0001:0003a3b1       ?Platform_Initialise@@YAXPAX@Z 1003b3b1 f   PlatWin.obj
 0001:0003a4c1       ?Platform_Finalise@@YAXXZ  1003b4c1 f   PlatWin.obj
 0001:0003a4d2       ?CompareCaseInsensitive@@YAHPBD0@Z 1003b4d2 f   PropSet.obj
 0001:0003a521       ?CompareNCaseInsensitive@@YAHPBD0I@Z 1003b521 f   PropSet.obj
 0001:0003a585       ?grow@SString@@AAE_NI@Z    1003b585 f   PropSet.obj
 0001:0003a5f0       ?assign@SString@@AAEAAV1@PBDI@Z 1003b5f0 f   PropSet.obj
 0001:0003a66a       ??8SString@@QBE_NPBD@Z     1003b66a f   PropSet.obj
 0001:0003a699       ??0SString@@QAE@PBDII@Z    1003b699 f i PropSet.obj
 0001:0003a6d9       ?append@SString@@QAEAAV1@PBDID@Z 1003b6d9 f   PropSet.obj
 0001:0003a75d       ?insert@SString@@QAEAAV1@IPBDI@Z 1003b75d f   PropSet.obj
 0001:0003a7db       ?remove@SString@@QAEXII@Z  1003b7db f   PropSet.obj
 0001:0003a823       ?search@SString@@QBEHPBDI@Z 1003b823 f   PropSet.obj
 0001:0003a84e       ?StringAllocate@SContainer@@SAPADPBDI@Z 1003b84e f   PropSet.obj
 0001:0003a896       ??0PropSet@@QAE@XZ         1003b896 f   PropSet.obj
 0001:0003a8ad       ??1PropSet@@QAE@XZ         1003b8ad f   PropSet.obj
 0001:0003a8b9       ?Set@PropSet@@QAEXPBD0HH@Z 1003b8b9 f   PropSet.obj
 0001:0003a9b2       ?Get@PropSet@@QAE?AVSString@@PBD@Z 1003b9b2 f   PropSet.obj
 0001:0003aa3b       ?GetExpanded@PropSet@@QAE?AVSString@@PBD@Z 1003ba3b f   PropSet.obj
 0001:0003aa8e       ??0SString@@QAE@ABV0@@Z    1003ba8e f i PropSet.obj
 0001:0003ac21       ?contains@VarChain@@QBE_NPBD@Z 1003bc21 f i PropSet.obj
 0001:0003ac59       ?GetInt@PropSet@@QAEHPBDH@Z 1003bc59 f   PropSet.obj
 0001:0003aca0       ?Clear@PropSet@@QAEXXZ     1003bca0 f   PropSet.obj
 0001:0003acf3       ?ToString@PropSet@@QAEPADXZ 1003bcf3 f   PropSet.obj
 0001:0003adb7       ?Clear@WordList@@QAEXXZ    1003bdb7 f   PropSet.obj
 0001:0003adef       ?Set@WordList@@QAEXPBD@Z   1003bdef f   PropSet.obj
 0001:0003af23       _cmpString                 1003bf23 f   PropSet.obj
 0001:0003af37       ?InList@WordList@@QAE_NPBD@Z 1003bf37 f   PropSet.obj
 0001:0003b043       ?InListAbbreviated@WordList@@QAE_NPBDD@Z 1003c043 f   PropSet.obj
 0001:0003b161       ??0RESearch@@QAE@PAVCharClassify@@@Z 1003c161 f   RESearch.obj
 0001:0003b179       ??1RESearch@@QAE@XZ        1003c179 f   RESearch.obj
 0001:0003b17e       ?Init@RESearch@@AAEXXZ     1003c17e f   RESearch.obj
 0001:0003b1a3       ?Clear@RESearch@@AAEXXZ    1003c1a3 f   RESearch.obj
 0001:0003b1c7       ?GrabMatches@RESearch@@QAE_NAAVCharacterIndexer@@@Z 1003c1c7 f   RESearch.obj
 0001:0003b23c       ?ChSet@RESearch@@AAEXD@Z   1003c23c f   RESearch.obj
 0001:0003b263       ?ChSetWithCase@RESearch@@AAEXD_N@Z 1003c263 f   RESearch.obj
 0001:0003b2b1       ?escapeValue@@YA?BDD@Z     1003c2b1 f   RESearch.obj
 0001:0003b2ed       ?Compile@RESearch@@QAEPBDPBDH_N1@Z 1003c2ed f   RESearch.obj
 0001:0003b777       ?Execute@RESearch@@QAEHAAVCharacterIndexer@@HH@Z 1003c777 f   RESearch.obj
 0001:0003b81d       ?PMatch@RESearch@@AAEHAAVCharacterIndexer@@HHPAD@Z 1003c81d f   RESearch.obj
 0001:0003ba96       ??0ScintillaBase@@IAE@XZ   1003ca96 f   ScintillaBase.obj
 0001:0003bb48       ??_EScintillaBase@@MAEPAXI@Z 1003cb48 f i ScintillaBase.obj
 0001:0003bb48       ??_GScintillaBase@@MAEPAXI@Z 1003cb48 f i ScintillaBase.obj
 0001:0003bb64       ??1ScintillaBase@@MAE@XZ   1003cb64 f   ScintillaBase.obj
 0001:0003bbe9       ?Finalise@ScintillaBase@@MAEXXZ 1003cbe9 f   ScintillaBase.obj
 0001:0003bbfe       ?RefreshColourPalette@ScintillaBase@@MAEXAAVPalette@@_N@Z 1003cbfe f   ScintillaBase.obj
 0001:0003bc25       ?AddCharUTF@ScintillaBase@@MAEXPADI_N@Z 1003cc25 f   ScintillaBase.obj
 0001:0003bc9b       ?Command@ScintillaBase@@IAEXH@Z 1003cc9b f   ScintillaBase.obj
 0001:0003bd18       ?KeyCommand@ScintillaBase@@MAEHI@Z 1003cd18 f   ScintillaBase.obj
 0001:0003be66       ?AutoCompleteDoubleClick@ScintillaBase@@KAXPAX@Z 1003ce66 f   ScintillaBase.obj
 0001:0003be6f       ?AutoCompleteStart@ScintillaBase@@IAEXHPBD@Z 1003ce6f f   ScintillaBase.obj
 0001:0003c1dd       ?AutoCompleteCancel@ScintillaBase@@IAEXXZ 1003d1dd f   ScintillaBase.obj
 0001:0003c1e8       ?AutoCompleteMove@ScintillaBase@@IAEXH@Z 1003d1e8 f   ScintillaBase.obj
 0001:0003c1fa       ?AutoCompleteMoveToCurrentWord@ScintillaBase@@IAEXXZ 1003d1fa f   ScintillaBase.obj
 0001:0003c27d       ?AutoCompleteCharacterAdded@ScintillaBase@@IAEXD@Z 1003d27d f   ScintillaBase.obj
 0001:0003c2c3       ?AutoCompleteCharacterDeleted@ScintillaBase@@IAEXXZ 1003d2c3 f   ScintillaBase.obj
 0001:0003c305       ?AutoCompleteCompleted@ScintillaBase@@IAEXXZ 1003d305 f   ScintillaBase.obj
 0001:0003c4b6       ?AutoCompleteGetCurrent@ScintillaBase@@IAEHXZ 1003d4b6 f   ScintillaBase.obj
 0001:0003c4c1       ?CallTipShow@ScintillaBase@@IAEXVPoint@@PBD@Z 1003d4c1 f   ScintillaBase.obj
 0001:0003c5ca       ?CallTipClick@ScintillaBase@@IAEXXZ 1003d5ca f   ScintillaBase.obj
 0001:0003c60a       ?ContextMenu@ScintillaBase@@IAEXVPoint@@@Z 1003d60a f   ScintillaBase.obj
 0001:0003c79e       ?CancelModes@ScintillaBase@@MAEXXZ 1003d79e f   ScintillaBase.obj
 0001:0003c7ba       ?ButtonDown@ScintillaBase@@MAEXVPoint@@I_N11@Z 1003d7ba f   ScintillaBase.obj
 0001:0003c7e3       ?SetLexer@ScintillaBase@@IAEXK@Z 1003d7e3 f   ScintillaBase.obj
 0001:0003c811       ?SetLexerLanguage@ScintillaBase@@IAEXPBD@Z 1003d811 f   ScintillaBase.obj
 0001:0003c850       ?Colourise@ScintillaBase@@IAEXHH@Z 1003d850 f   ScintillaBase.obj
 0001:0003c96e       ??0DocumentAccessor@@QAE@PAVDocument@@AAVPropSet@@PAX@Z 1003d96e f i ScintillaBase.obj
 0001:0003c9de       ?GetPropertyInt@DocumentAccessor@@UAEHPBDH@Z 1003d9de f i ScintillaBase.obj
 0001:0003c9f4       ?GetProperties@DocumentAccessor@@UAEPADXZ 1003d9f4 f i ScintillaBase.obj
 0001:0003c9ff       ?SetFlags@DocumentAccessor@@UAEXDD@Z 1003d9ff f i ScintillaBase.obj
 0001:0003ca16       ?GetStartSegment@DocumentAccessor@@UAEIXZ 1003da16 f i ScintillaBase.obj
 0001:0003ca1d       ??_GDocumentAccessor@@UAEPAXI@Z 1003da1d f i ScintillaBase.obj
 0001:0003ca1d       ??_EDocumentAccessor@@UAEPAXI@Z 1003da1d f i ScintillaBase.obj
 0001:0003ca39       ?NotifyStyleToNeeded@ScintillaBase@@MAEXH@Z 1003da39 f   ScintillaBase.obj
 0001:0003ca96       ?WndProc@ScintillaBase@@UAEJIKJ@Z 1003da96 f   ScintillaBase.obj
 0001:0003d03c       ??0ScintillaWin@@AAE@PAUHWND__@@@Z 1003e03c f   ScintillaWin.obj
 0001:0003d0dd       ??_EScintillaWin@@EAEPAXI@Z 1003e0dd f i ScintillaWin.obj
 0001:0003d0dd       ??_GScintillaWin@@EAEPAXI@Z 1003e0dd f i ScintillaWin.obj
 0001:0003d0f9       ??1ScintillaWin@@EAE@XZ    1003e0f9 f   ScintillaWin.obj
 0001:0003d104       ?Initialise@ScintillaWin@@EAEXXZ 1003e104 f   ScintillaWin.obj
 0001:0003d10d       ?Finalise@ScintillaWin@@EAEXXZ 1003e10d f   ScintillaWin.obj
 0001:0003d14a       ?StartDrag@ScintillaWin@@EAEXXZ 1003e14a f   ScintillaWin.obj
 0001:0003d1aa       ?WndPaint@ScintillaWin@@AAEJK@Z 1003e1aa f   ScintillaWin.obj
 0001:0003d310       ?HandleComposition@ScintillaWin@@AAEJKJ@Z 1003e310 f   ScintillaWin.obj
 0001:0003d485       ?WndProc@ScintillaWin@@UAEJIKJ@Z 1003e485 f   ScintillaWin.obj
 0001:0003e104       ?ValidCodePage@ScintillaWin@@EBE_NH@Z 1003f104 f   ScintillaWin.obj
 0001:0003e140       ?DefWndProc@ScintillaWin@@EAEJIKJ@Z 1003f140 f   ScintillaWin.obj
 0001:0003e15b       ?SetTicking@ScintillaWin@@EAEX_N@Z 1003f15b f   ScintillaWin.obj
 0001:0003e1c7       ?SetIdle@ScintillaWin@@EAE_N_N@Z 1003f1c7 f   ScintillaWin.obj
 0001:0003e230       ?SetMouseCapture@ScintillaWin@@EAEX_N@Z 1003f230 f   ScintillaWin.obj
 0001:0003e264       ?HaveMouseCapture@ScintillaWin@@EAE_NXZ 1003f264 f   ScintillaWin.obj
 0001:0003e26b       ?PaintContains@ScintillaWin@@EAE_NVPRectangle@@@Z 1003f26b f   ScintillaWin.obj
 0001:0003e304       ?ScrollText@ScintillaWin@@EAEXH@Z 1003f304 f   ScintillaWin.obj
 0001:0003e338       ?UpdateSystemCaret@ScintillaWin@@EAEXXZ 1003f338 f   ScintillaWin.obj
 0001:0003e380       ?SetScrollInfo@ScintillaWin@@EAEHHPBUtagSCROLLINFO@@H@Z 1003f380 f   ScintillaWin.obj
 0001:0003e39b       ?GetScrollInfo@ScintillaWin@@EAE_NHPAUtagSCROLLINFO@@@Z 1003f39b f   ScintillaWin.obj
 0001:0003e3b7       ?ChangeScrollPos@ScintillaWin@@AAEXHH@Z 1003f3b7 f   ScintillaWin.obj
 0001:0003e41e       ?SetVerticalScrollPos@ScintillaWin@@EAEXXZ 1003f41e f   ScintillaWin.obj
 0001:0003e42c       ?SetHorizontalScrollPos@ScintillaWin@@EAEXXZ 1003f42c f   ScintillaWin.obj
 0001:0003e43a       ?ModifyScrollBars@ScintillaWin@@EAE_NHH@Z 1003f43a f   ScintillaWin.obj
 0001:0003e572       ?NotifyChange@ScintillaWin@@EAEXXZ 1003f572 f   ScintillaWin.obj
 0001:0003e5a7       ?NotifyFocus@ScintillaWin@@EAEX_N@Z 1003f5a7 f   ScintillaWin.obj
 0001:0003e5f6       ?GetCtrlID@ScintillaWin@@EAEHXZ 1003f5f6 f   ScintillaWin.obj
 0001:0003e600       ?NotifyParent@ScintillaWin@@EAEXUSCNotification@@@Z 1003f600 f   ScintillaWin.obj
 0001:0003e63f       ?NotifyDoubleClick@ScintillaWin@@EAEXVPoint@@_N@Z 1003f63f f   ScintillaWin.obj
 0001:0003e684       ?Copy@ScintillaWin@@EAEXXZ 1003f684 f   ScintillaWin.obj
 0001:0003e6cb       ?CanPaste@ScintillaWin@@EAE_NXZ 1003f6cb f   ScintillaWin.obj
 0001:0003e706       ?InsertPasteText@ScintillaWin@@AAEXPBDHH_N@Z 1003f706 f   ScintillaWin.obj
 0001:0003e7b6       ?Paste@ScintillaWin@@EAEXXZ 1003f7b6 f   ScintillaWin.obj
 0001:0003ea67       ?CreateCallTipWindow@ScintillaWin@@EAEXVPRectangle@@@Z 1003fa67 f   ScintillaWin.obj
 0001:0003eacb       ?AddToPopUp@ScintillaWin@@EAEXPBDH_N@Z 1003facb f   ScintillaWin.obj
 0001:0003eb02       ?FormatEnumerator_QueryInterface@@YGJPAVFormatEnumerator@@ABU_GUID@@PAPAX@Z 1003fb02 f   ScintillaWin.obj
 0001:0003eb5a       ?FormatEnumerator_AddRef@@YGKPAVFormatEnumerator@@@Z 1003fb5a f   ScintillaWin.obj
 0001:0003eb67       ?FormatEnumerator_Release@@YGKPAVFormatEnumerator@@@Z 1003fb67 f   ScintillaWin.obj
 0001:0003eb81       ?FormatEnumerator_Next@@YGJPAVFormatEnumerator@@KPAUtagFORMATETC@@PAK@Z 1003fb81 f   ScintillaWin.obj
 0001:0003ebe4       ?FormatEnumerator_Skip@@YGJPAVFormatEnumerator@@K@Z 1003fbe4 f   ScintillaWin.obj
 0001:0003ebf4       ?FormatEnumerator_Reset@@YGJPAVFormatEnumerator@@@Z 1003fbf4 f   ScintillaWin.obj
 0001:0003ec01       ?FormatEnumerator_Clone@@YGJPAVFormatEnumerator@@PAPAUIEnumFORMATETC@@@Z 1003fc01 f   ScintillaWin.obj
 0001:0003ec38       ??0FormatEnumerator@@QAE@HQAGH@Z 1003fc38 f   ScintillaWin.obj
 0001:0003ec75       ?DropSource_QueryContinueDrag@@YGJPAVDropSource@@HK@Z 1003fc75 f   ScintillaWin.obj
 0001:0003ec9a       ?DropSource_GiveFeedback@@YGJPAVDropSource@@K@Z 1003fc9a f   ScintillaWin.obj
 0001:0003eca2       ??0DropSource@@QAE@XZ      1003fca2 f   ScintillaWin.obj
 0001:0003ecaf       ?DropTarget_AddRef@@YGKPAVDropTarget@@@Z 1003fcaf f   ScintillaWin.obj
 0001:0003ecaf       ?DataObject_Release@@YGKPAVDataObject@@@Z 1003fcaf f   ScintillaWin.obj
 0001:0003ecaf       ?DataObject_AddRef@@YGKPAVDataObject@@@Z 1003fcaf f   ScintillaWin.obj
 0001:0003ecaf       ?DropTarget_Release@@YGKPAVDropTarget@@@Z 1003fcaf f   ScintillaWin.obj
 0001:0003ecaf       ?DropSource_Release@@YGKPAVDropSource@@@Z 1003fcaf f   ScintillaWin.obj
 0001:0003ecaf       ?DropSource_AddRef@@YGKPAVDropSource@@@Z 1003fcaf f   ScintillaWin.obj
 0001:0003ecbe       ?DataObject_GetData@@YGJPAVDataObject@@PAUtagFORMATETC@@PAUtagSTGMEDIUM@@@Z 1003fcbe f   ScintillaWin.obj
 0001:0003ecd5       ?DataObject_GetDataHere@@YGJPAVDataObject@@PAUtagFORMATETC@@PAUtagSTGMEDIUM@@@Z 1003fcd5 f   ScintillaWin.obj
 0001:0003ecdd       ?DataObject_QueryGetData@@YGJPAVDataObject@@PAUtagFORMATETC@@@Z 1003fcdd f   ScintillaWin.obj
 0001:0003ed50       ?DataObject_GetCanonicalFormatEtc@@YGJPAVDataObject@@PAUtagFORMATETC@@1@Z 1003fd50 f   ScintillaWin.obj
 0001:0003ed83       ?DataObject_SetData@@YGJPAVDataObject@@PAUtagFORMATETC@@PAUtagSTGMEDIUM@@H@Z 1003fd83 f   ScintillaWin.obj
 0001:0003ed8b       ?DataObject_EnumFormatEtc@@YGJPAVDataObject@@KPAPAUIEnumFORMATETC@@@Z 1003fd8b f   ScintillaWin.obj
 0001:0003ee06       ?DataObject_DAdvise@@YGJPAVDataObject@@PAUtagFORMATETC@@KPAUIAdviseSink@@PAK@Z 1003fe06 f   ScintillaWin.obj
 0001:0003ee0e       ?DataObject_DUnadvise@@YGJPAVDataObject@@K@Z 1003fe0e f   ScintillaWin.obj
 0001:0003ee0e       ?DataObject_EnumDAdvise@@YGJPAVDataObject@@PAPAUIEnumSTATDATA@@@Z 1003fe0e f   ScintillaWin.obj
 0001:0003ee16       ??0DataObject@@QAE@XZ      1003fe16 f   ScintillaWin.obj
 0001:0003ee23       ?DropSource_QueryInterface@@YGJPAVDropSource@@ABU_GUID@@PAPAX@Z 1003fe23 f   ScintillaWin.obj
 0001:0003ee23       ?DataObject_QueryInterface@@YGJPAVDataObject@@ABU_GUID@@PAPAX@Z 1003fe23 f   ScintillaWin.obj
 0001:0003ee23       ?DropTarget_QueryInterface@@YGJPAVDropTarget@@ABU_GUID@@PAPAX@Z 1003fe23 f   ScintillaWin.obj
 0001:0003ee3a       ?DropTarget_DragEnter@@YGJPAVDropTarget@@PAUIDataObject@@KU_POINTL@@PAK@Z 1003fe3a f   ScintillaWin.obj
 0001:0003ee5b       ?DropTarget_DragOver@@YGJPAVDropTarget@@KU_POINTL@@PAK@Z 1003fe5b f   ScintillaWin.obj
 0001:0003ee79       ?DropTarget_DragLeave@@YGJPAVDropTarget@@@Z 1003fe79 f   ScintillaWin.obj
 0001:0003ee88       ?DropTarget_Drop@@YGJPAVDropTarget@@PAUIDataObject@@KU_POINTL@@PAK@Z 1003fe88 f   ScintillaWin.obj
 0001:0003eea9       ??0DropTarget@@QAE@XZ      1003fea9 f   ScintillaWin.obj
 0001:0003eeb6       ?ImeStartComposition@ScintillaWin@@AAEXXZ 1003feb6 f   ScintillaWin.obj
 0001:0003f037       ?ImeEndComposition@ScintillaWin@@AAEXXZ 10040037 f   ScintillaWin.obj
 0001:0003f03c       ?AddCharBytes@ScintillaWin@@AAEXDD@Z 1004003c f   ScintillaWin.obj
 0001:0003f10c       ?GetIntelliMouseParameters@ScintillaWin@@AAEXXZ 1004010c f   ScintillaWin.obj
 0001:0003f120       ?CopyToClipboard@ScintillaWin@@EAEXABVSelectionText@@@Z 10040120 f   ScintillaWin.obj
 0001:0003f296       ?ScrollMessage@ScintillaWin@@AAEXI@Z 10040296 f   ScintillaWin.obj
 0001:0003f348       ?HorizontalScrollMessage@ScintillaWin@@AAEXI@Z 10040348 f   ScintillaWin.obj
 0001:0003f3f9       ?RealizeWindowPalette@ScintillaWin@@AAEX_N@Z 100403f9 f   ScintillaWin.obj
 0001:0003f476       ?FullPaint@ScintillaWin@@AAEXXZ 10040476 f   ScintillaWin.obj
 0001:0003f4a2       ?FullPaintDC@ScintillaWin@@AAEXPAUHDC__@@@Z 100404a2 f   ScintillaWin.obj
 0001:0003f51e       ?IsCompatibleDC@ScintillaWin@@AAE_NPAUHDC__@@@Z 1004051e f   ScintillaWin.obj
 0001:0003f5ce       ?QueryInterface@ScintillaWin@@QAGJABU_GUID@@PAPAX@Z 100405ce f   ScintillaWin.obj
 0001:0003f666       ?Release@ScintillaWin@@QAGKXZ 10040666 f   ScintillaWin.obj
 0001:0003f666       ?AddRef@ScintillaWin@@QAGKXZ 10040666 f   ScintillaWin.obj
 0001:0003f66c       ?DragEnter@ScintillaWin@@QAGJPAUIDataObject@@KU_POINTL@@PAK@Z 1004066c f   ScintillaWin.obj
 0001:0003f72c       ?DragOver@ScintillaWin@@QAGJKU_POINTL@@PAK@Z 1004072c f   ScintillaWin.obj
 0001:0003f7bc       ?DragLeave@ScintillaWin@@QAGJXZ 100407bc f   ScintillaWin.obj
 0001:0003f7cc       ?Drop@ScintillaWin@@QAGJPAUIDataObject@@KU_POINTL@@PAK@Z 100407cc f   ScintillaWin.obj
 0001:0003f9a9       ?GetData@ScintillaWin@@QAGJPAUtagFORMATETC@@PAUtagSTGMEDIUM@@@Z 100409a9 f   ScintillaWin.obj
 0001:0003faa7       ?Register@ScintillaWin@@SA_NPAUHINSTANCE__@@@Z 10040aa7 f   ScintillaWin.obj
 0001:0003fb5d       ?Unregister@ScintillaWin@@SA_NXZ 10040b5d f   ScintillaWin.obj
 0001:0003fb8f       ?HasCaretSizeChanged@ScintillaWin@@AAE_NXZ 10040b8f f   ScintillaWin.obj
 0001:0003fbb9       ?CreateSystemCaret@ScintillaWin@@AAEHXZ 10040bb9 f   ScintillaWin.obj
 0001:0003fc64       ?DestroySystemCaret@ScintillaWin@@AAEHXZ 10040c64 f   ScintillaWin.obj
 0001:0003fc97       ?CTWndProc@ScintillaWin@@CGJPAUHWND__@@IIJ@Z 10040c97 f   ScintillaWin.obj
 0001:0003fe23       ?DirectFunction@ScintillaWin@@CAJPAV1@IKJ@Z 10040e23 f   ScintillaWin.obj
 0001:0003fe3c       _Scintilla_DirectFunction@16 10040e3c f   ScintillaWin.obj
 0001:0003fe57       ?SWndProc@ScintillaWin@@CGJPAUHWND__@@IIJ@Z 10040e57 f   ScintillaWin.obj
 0001:0003fefc       ?Scintilla_RegisterClasses@@YA_NPAX@Z 10040efc f   ScintillaWin.obj
 0001:0003ff1c       ?Scintilla_ReleaseResources@@YA_NXZ 10040f1c f   ScintillaWin.obj
 0001:0003ff2d       _DllMain@12                10040f2d f   ScintillaWin.obj
 0001:0003ff58       ??0Style@@QAE@XZ           10040f58 f   Style.obj
 0001:0003ffa3       ??1Style@@QAE@XZ           10040fa3 f   Style.obj
 0001:0003ffc9       ??4Style@@QAEAAV0@ABV0@@Z  10040fc9 f   Style.obj
 0001:0004003a       ?Clear@Style@@QAEXVColourDesired@@0HPBDH_N222W4ecaseForced@1@222@Z 1004103a f   Style.obj
 0001:000400ab       ?ClearTo@Style@@QAEXABV1@@Z 100410ab f   Style.obj
 0001:000400f2       ?EquivalentFontTo@Style@@QBE_NPBV1@@Z 100410f2 f   Style.obj
 0001:00040141       ?Realise@Style@@QAEXAAVSurface@@HPAV1@_N@Z 10041141 f   Style.obj
 0001:0004022c       ?GetCurrent@StyleContext@@QAEXPADI@Z 1004122c f   StyleContext.obj
 0001:0004029f       ?GetCurrentLowered@StyleContext@@QAEXPADI@Z 1004129f f   StyleContext.obj
 0001:0004031c       ?UTF8Length@@YAIPBGI@Z     1004131c f   UniConversion.obj
 0001:0004035b       ?UTF8FromUCS2@@YAXPBGIPADI@Z 1004135b f   UniConversion.obj
 0001:000403c5       ?UCS2Length@@YAIPBDI@Z     100413c5 f   UniConversion.obj
 0001:000403e9       ?UCS2FromUTF8@@YAIPBDIPAGI@Z 100413e9 f   UniConversion.obj
 0001:00040460       ??0MarginStyle@@QAE@XZ     10041460 f   ViewStyle.obj
 0001:00040470       ??0FontNames@@QAE@XZ       10041470 f   ViewStyle.obj
 0001:0004047a       ??1FontNames@@QAE@XZ       1004147a f   ViewStyle.obj
 0001:0004047f       ?Clear@FontNames@@QAEXXZ   1004147f f   ViewStyle.obj
 0001:000404af       ?Save@FontNames@@QAEPBDPBD@Z 100414af f   ViewStyle.obj
 0001:0004052b       ??0ViewStyle@@QAE@XZ       1004152b f   ViewStyle.obj
 0001:000406e1       ??0ColourPair@@QAE@VColourDesired@@@Z 100416e1 f i ViewStyle.obj
 0001:000406f3       ??0Indicator@@QAE@XZ       100416f3 f i ViewStyle.obj
 0001:00040703       ??0LineMarker@@QAE@XZ      10041703 f i ViewStyle.obj
 0001:0004073d       ??0ViewStyle@@QAE@ABV0@@Z  1004173d f   ViewStyle.obj
 0001:00040b78       ??4LineMarker@@QAEAAV0@ABV0@@Z 10041b78 f i ViewStyle.obj
 0001:00040bbd       ??1ViewStyle@@QAE@XZ       10041bbd f   ViewStyle.obj
 0001:00040bfb       ??1LineMarker@@QAE@XZ      10041bfb f i ViewStyle.obj
 0001:00040c13       ?Init@ViewStyle@@QAEXXZ    10041c13 f   ViewStyle.obj
 0001:00040e71       ?RefreshColourPalette@ViewStyle@@QAEXAAVPalette@@_N@Z 10041e71 f   ViewStyle.obj
 0001:00040fd4       ?Refresh@ViewStyle@@QAEXAAVSurface@@@Z 10041fd4 f   ViewStyle.obj
 0001:0004113d       ?ResetDefaultStyle@ViewStyle@@QAEXXZ 1004213d f   ViewStyle.obj
 0001:0004117c       ?ClearStyles@ViewStyle@@QAEXXZ 1004217c f   ViewStyle.obj
 0001:000411d5       ?SetStyleFontName@ViewStyle@@QAEXHPBD@Z 100421d5 f   ViewStyle.obj
 0001:000411f6       ?ProtectionActive@ViewStyle@@QBE_NXZ 100421f6 f   ViewStyle.obj
 0001:000411fd       ?ColourFromCode@XPM@@AAE?AVColourAllocated@@H@Z 100421fd f   XPM.obj
 0001:00041211       ?FillRun@XPM@@AAEXPAVSurface@@HHHH@Z 10042211 f   XPM.obj
 0001:0004126a       ??0XPM@@QAE@PBD@Z          1004226a f   XPM.obj
 0001:0004128a       ??1XPM@@QAE@XZ             1004228a f   XPM.obj
 0001:0004128f       ?Init@XPM@@QAEXPBD@Z       1004228f f   XPM.obj
 0001:000412ef       ?Init@XPM@@QAEXPBQBD@Z     100422ef f   XPM.obj
 0001:000414b8       ?Set@ColourDesired@@QAEXPBD@Z 100424b8 f i XPM.obj
 0001:0004153d       ?ValueOfHex@ColourDesired@@SAID@Z 1004253d f i XPM.obj
 0001:000415b9       ?Clear@XPM@@QAEXXZ         100425b9 f   XPM.obj
 0001:000415f1       ?RefreshColourPalette@XPM@@QAEXAAVPalette@@_N@Z 100425f1 f   XPM.obj
 0001:0004162f       ?CopyDesiredColours@XPM@@QAEXXZ 1004262f f   XPM.obj
 0001:0004165f       ?Draw@XPM@@QAEXPAVSurface@@AAVPRectangle@@@Z 1004265f f   XPM.obj
 0001:00041750       ?LinesFormFromTextForm@XPM@@SAPAPBDPBD@Z 10042750 f   XPM.obj
 0001:000417f5       ??0XPMSet@@QAE@XZ          100427f5 f   XPM.obj
 0001:0004180a       ??1XPMSet@@QAE@XZ          1004280a f   XPM.obj
 0001:0004180f       ?Clear@XPMSet@@QAEXXZ      1004280f f   XPM.obj
 0001:00041857       ?Add@XPMSet@@QAEXHPBD@Z    10042857 f   XPM.obj
 0001:0004191d       ?Get@XPMSet@@QAEPAVXPM@@H@Z 1004291d f   XPM.obj
 0001:0004194a       ?GetHeight@XPMSet@@QAEHXZ  1004294a f   XPM.obj
 0001:0004197d       ?GetWidth@XPMSet@@QAEHXZ   1004297d f   XPM.obj
 0001:000419b0       _ImmReleaseContext@8       100429b0 f   imm32:IMM32.dll
 0001:000419b6       _ImmSetCompositionWindow@8 100429b6 f   imm32:IMM32.dll
 0001:000419bc       _ImmGetCompositionStringW@16 100429bc f   imm32:IMM32.dll
 0001:000419c2       _ImmGetContext@4           100429c2 f   imm32:IMM32.dll
 0001:000419c8       _ImmNotifyIME@16           100429c8 f   imm32:IMM32.dll
 0001:000419ce       _ImmSetCompositionFontA@8  100429ce f   imm32:IMM32.dll
 0001:000419e0       _strncpy                   100429e0 f   LIBCMT:strncpy.obj
 0001:00041af0       _strchr                    10042af0 f   LIBCMT:strchr.obj
 0001:00041af6       ___from_strstr_to_strchr   10042af6 f   LIBCMT:strchr.obj
 0001:00041bb0       _strncmp                   10042bb0 f   LIBCMT:strncmp.obj
 0001:00041bf0       _strlen                    10042bf0 f   LIBCMT:strlen.obj
 0001:00041c6b       ??3@YAXPAX@Z               10042c6b f   LIBCMT:delete.obj
 0001:00041c80       _strcpy                    10042c80 f   LIBCMT:strcat.obj
 0001:00041c90       _strcat                    10042c90 f   LIBCMT:strcat.obj
 0001:00041d70       ??2@YAPAXI@Z               10042d70 f   LIBCMT:new.obj
 0001:00041d80       _memcpy                    10042d80 f   LIBCMT:memcpy.obj
 0001:000420b5       _isalpha                   100430b5 f   LIBCMT:_ctype.obj
 0001:000420e3       _isupper                   100430e3 f   LIBCMT:_ctype.obj
 0001:0004210b       _islower                   1004310b f   LIBCMT:_ctype.obj
 0001:00042133       _isdigit                   10043133 f   LIBCMT:_ctype.obj
 0001:0004215b       _isxdigit                  1004315b f   LIBCMT:_ctype.obj
 0001:00042188       _isspace                   10043188 f   LIBCMT:_ctype.obj
 0001:000421b0       _ispunct                   100431b0 f   LIBCMT:_ctype.obj
 0001:000421d8       _isalnum                   100431d8 f   LIBCMT:_ctype.obj
 0001:00042206       _isgraph                   10043206 f   LIBCMT:_ctype.obj
 0001:00042234       _iscntrl                   10043234 f   LIBCMT:_ctype.obj
 0001:0004225c       __purecall                 1004325c f   LIBCMT:purevirt.obj
 0001:00042265       _abs                       10043265 f   LIBCMT:abs.obj
 0001:00042270       _sprintf                   10043270 f   LIBCMT:sprintf.obj
 0001:000422c2       _toupper                   100432c2 f   LIBCMT:toupper.obj
 0001:00042331       __toupper_lk               10043331 f   LIBCMT:toupper.obj
 0001:000423fd       _tolower                   100433fd f   LIBCMT:tolower.obj
 0001:0004246c       __tolower_lk               1004346c f   LIBCMT:tolower.obj
 0001:00042540       __alloca_probe             10043540 f   LIBCMT:chkstk.obj
 0001:00042540       __chkstk                   10043540 f   LIBCMT:chkstk.obj
 0001:0004256f       __onexit                   1004356f f   LIBCMT:onexit.obj
 0001:000425ed       _atexit                    100435ed f   LIBCMT:onexit.obj
 0001:000425ff       ___onexitinit              100435ff f   LIBCMT:onexit.obj
 0001:00042630       _strcmp                    10043630 f   LIBCMT:strcmp.obj
 0001:000426c0       _strstr                    100436c0 f   LIBCMT:strstr.obj
 0001:00042740       _atol                      10043740 f   LIBCMT:atox.obj
 0001:000427cb       _atoi                      100437cb f   LIBCMT:atox.obj
 0001:000427e0       _memcmp                    100437e0 f   LIBCMT:memcmp.obj
 0001:00042890       _memmove                   10043890 f   LIBCMT:memmove.obj
 0001:00042bd0       _memset                    10043bd0 f   LIBCMT:memset.obj
 0001:00042c28       ___inittime                10043c28 f   LIBCMT:clock.obj
 0001:00042c5d       __fpmath                   10043c5d f   LIBCMT:fpinit.obj
 0001:00042c74       __cfltcvt_init             10043c74 f   LIBCMT:fpinit.obj
 0001:00042cac       _qsort                     10043cac f   LIBCMT:qsort.obj
 0001:00042e7a       __CRT_INIT@12              10043e7a f   LIBCMT:dllcrt0.obj
 0001:00042f53       __DllMainCRTStartup@12     10043f53 f   LIBCMT:dllcrt0.obj
 0001:00042ff0       __amsg_exit                10043ff0 f   LIBCMT:dllcrt0.obj
 0001:00043023       _free                      10044023 f   LIBCMT:free.obj
 0001:0004310c       _malloc                    1004410c f   LIBCMT:malloc.obj
 0001:0004311e       __nh_malloc                1004411e f   LIBCMT:malloc.obj
 0001:0004314a       __heap_alloc               1004414a f   LIBCMT:malloc.obj
 0001:00043246       __isctype                  10044246 f   LIBCMT:isctype.obj
 0001:000432bb       __flsbuf                   100442bb f   LIBCMT:_flsbuf.obj
 0001:000433d3       __output                   100443d3 f   LIBCMT:output.obj
 0001:00043c3a       __mtinitlocks              10044c3a f   LIBCMT:mlock.obj
 0001:00043c63       __mtdeletelocks            10044c63 f   LIBCMT:mlock.obj
 0001:00043ccf       __lock                     10044ccf f   LIBCMT:mlock.obj
 0001:00043d30       __unlock                   10044d30 f   LIBCMT:mlock.obj
 0001:00043d45       ___crtLCMapStringA         10044d45 f   LIBCMT:a_map.obj
 0001:00043f94       __cinit                    10044f94 f   LIBCMT:crt0dat.obj
 0001:00043fc1       __exit                     10044fc1 f   LIBCMT:crt0dat.obj
 0001:00043fd2       __cexit                    10044fd2 f   LIBCMT:crt0dat.obj
 0001:00044086       __lockexit                 10045086 f   LIBCMT:crt0dat.obj
 0001:0004408f       __unlockexit               1004508f f   LIBCMT:crt0dat.obj
 0001:000440b2       _realloc                   100450b2 f   LIBCMT:realloc.obj
 0001:000443e1       __msize                    100453e1 f   LIBCMT:msize.obj
 0001:000444d0       __allmul                   100454d0 f   LIBCMT:llmul.obj
 0001:00044510       __aulldiv                  10045510 f   LIBCMT:ulldiv.obj
 0001:00044578       __setdefaultprecision      10045578 f   LIBCMT:fp8.obj
 0001:0004458a       __ms_p5_test_fdiv          1004558a f   LIBCMT:testfdiv.obj
 0001:000445c8       __ms_p5_mp_test_fdiv       100455c8 f   LIBCMT:testfdiv.obj
 0001:000445f1       __forcdecpt                100455f1 f   LIBCMT:cvt.obj
 0001:0004464b       __cropzeros                1004564b f   LIBCMT:cvt.obj
 0001:00044699       __positive                 10045699 f   LIBCMT:cvt.obj
 0001:000446b1       __fassign                  100456b1 f   LIBCMT:cvt.obj
 0001:000446ef       __cftoe                    100456ef f   LIBCMT:cvt.obj
 0001:00044812       __cftof                    10045812 f   LIBCMT:cvt.obj
 0001:0004490e       __cftog                    1004590e f   LIBCMT:cvt.obj
 0001:000449a1       __cfltcvt                  100459a1 f   LIBCMT:cvt.obj
 0001:00044a17       __FF_MSGBANNER             10045a17 f   LIBCMT:crt0msg.obj
 0001:00044a50       __NMSG_WRITE               10045a50 f   LIBCMT:crt0msg.obj
 0001:00044ba3       __mtinit                   10045ba3 f   LIBCMT:tidtable.obj
 0001:00044bf7       __mtterm                   10045bf7 f   LIBCMT:tidtable.obj
 0001:00044c15       __initptd                  10045c15 f   LIBCMT:tidtable.obj
 0001:00044c28       __getptd                   10045c28 f   LIBCMT:tidtable.obj
 0001:00044c8f       __freeptd                  10045c8f f   LIBCMT:tidtable.obj
 0001:00044d2f       __ioinit                   10045d2f f   LIBCMT:ioinit.obj
 0001:00044eeb       __ioterm                   10045eeb f   LIBCMT:ioinit.obj
 0001:00044f3f       __setenvp                  10045f3f f   LIBCMT:stdenvp.obj
 0001:00044ff8       __setargv                  10045ff8 f   LIBCMT:stdargv.obj
 0001:00045245       ___crtGetEnvironmentStringsA 10046245 f   LIBCMT:a_env.obj
 0001:00045377       __GetLinkerVersion         10046377 f   LIBCMT:heapinit.obj
 0001:000453a4       ___heap_select             100463a4 f   LIBCMT:heapinit.obj
 0001:000454ec       __heap_init                100464ec f   LIBCMT:heapinit.obj
 0001:00045549       __heap_term                10046549 f   LIBCMT:heapinit.obj
 0001:000455f1       ___sbh_heap_init           100465f1 f   LIBCMT:sbheap.obj
 0001:00045639       ___sbh_find_block          10046639 f   LIBCMT:sbheap.obj
 0001:00045664       ___sbh_free_block          10046664 f   LIBCMT:sbheap.obj
 0001:0004598d       ___sbh_alloc_block         1004698d f   LIBCMT:sbheap.obj
 0001:00045c96       ___sbh_alloc_new_region    10046c96 f   LIBCMT:sbheap.obj
 0001:00045d47       ___sbh_alloc_new_group     10046d47 f   LIBCMT:sbheap.obj
 0001:00045e42       ___sbh_resize_block        10046e42 f   LIBCMT:sbheap.obj
 0001:00046138       ___old_sbh_new_region      10047138 f   LIBCMT:sbheap.obj
 0001:0004627c       ___old_sbh_release_region  1004727c f   LIBCMT:sbheap.obj
 0001:000462d2       ___old_sbh_decommit_pages  100472d2 f   LIBCMT:sbheap.obj
 0001:00046394       ___old_sbh_find_block      10047394 f   LIBCMT:sbheap.obj
 0001:000463eb       ___old_sbh_free_block      100473eb f   LIBCMT:sbheap.obj
 0001:00046430       ___old_sbh_alloc_block     10047430 f   LIBCMT:sbheap.obj
 0001:00046638       ___old_sbh_alloc_block_from_page 10047638 f   LIBCMT:sbheap.obj
 0001:0004675c       ___old_sbh_resize_block    1004775c f   LIBCMT:sbheap.obj
 0001:00046808       __global_unwind2           10047808 f   LIBCMT:exsup.obj
 0001:0004684a       __local_unwind2            1004784a f   LIBCMT:exsup.obj
 0001:000468a2       __NLG_Return2              100478a2 f   LIBCMT:exsup.obj
 0001:000468b2       __abnormal_termination     100478b2 f   LIBCMT:exsup.obj
 0001:000468d5       __NLG_Notify1              100478d5 f   LIBCMT:exsup.obj
 0001:000468de       __NLG_Notify               100478de f   LIBCMT:exsup.obj
 0001:000468f1       __NLG_Dispatch             100478f1 f   LIBCMT:exsup.obj
 0001:00046900       __except_handler3          10047900 f   LIBCMT:exsup3.obj
 0001:000469bd       __seh_longjmp_unwind@4     100479bd f   LIBCMT:exsup3.obj
 0001:000469d8       __callnewh                 100479d8 f   LIBCMT:handler.obj
 0001:000469f3       ___crtGetStringTypeA       100479f3 f   LIBCMT:a_str.obj
 0001:00046b3c       __lseek                    10047b3c f   LIBCMT:lseek.obj
 0001:00046ba1       __lseek_lk                 10047ba1 f   LIBCMT:lseek.obj
 0001:00046c14       __write                    10047c14 f   LIBCMT:write.obj
 0001:00046c79       __write_lk                 10047c79 f   LIBCMT:write.obj
 0001:00046e04       __getbuf                   10047e04 f   LIBCMT:_getbuf.obj
 0001:00046e48       __isatty                   10047e48 f   LIBCMT:isatty.obj
 0001:00046e71       ___initstdio               10047e71 f   LIBCMT:_file.obj
 0001:00046f19       ___endstdio                10047f19 f   LIBCMT:_file.obj
 0001:00046f2d       __lock_file                10047f2d f   LIBCMT:_file.obj
 0001:00046f5c       __lock_file2               10047f5c f   LIBCMT:_file.obj
 0001:00046f7f       __unlock_file              10047f7f f   LIBCMT:_file.obj
 0001:00046fae       __unlock_file2             10047fae f   LIBCMT:_file.obj
 0001:00046fd1       _wctomb                    10047fd1 f   LIBCMT:wctomb.obj
 0001:0004702a       __wctomb_lk                1004802a f   LIBCMT:wctomb.obj
 0001:000470a0       __aullrem                  100480a0 f   LIBCMT:ullrem.obj
 0001:00047120       _strcspn                   10048120 f   LIBCMT:strcspn.obj
 0001:00047160       _strpbrk                   10048160 f   LIBCMT:strpbrk.obj
 0001:0004719a       __control87                1004819a f   LIBCMT:ieee87.obj
 0001:000471cf       __controlfp                100481cf f   LIBCMT:ieee87.obj
 0001:00047300       __ZeroTail                 10048300 f   LIBCMT:intrncvt.obj
 0001:00047349       __IncMan                   10048349 f   LIBCMT:intrncvt.obj
 0001:0004739f       __RoundMan                 1004839f f   LIBCMT:intrncvt.obj
 0001:0004742b       __CopyMan                  1004842b f   LIBCMT:intrncvt.obj
 0001:00047446       __FillZeroMan              10048446 f   LIBCMT:intrncvt.obj
 0001:00047452       __IsZeroMan                10048452 f   LIBCMT:intrncvt.obj
 0001:0004746d       __ShrMan                   1004846d f   LIBCMT:intrncvt.obj
 0001:000474fa       __ld12cvt                  100484fa f   LIBCMT:intrncvt.obj
 0001:00047666       __ld12tod                  10048666 f   LIBCMT:intrncvt.obj
 0001:0004767c       __ld12tof                  1004867c f   LIBCMT:intrncvt.obj
 0001:00047692       __atodbl                   10048692 f   LIBCMT:intrncvt.obj
 0001:000476bf       __atoflt                   100486bf f   LIBCMT:intrncvt.obj
 0001:000476ec       __fptostr                  100486ec f   LIBCMT:_fptostr.obj
 0001:00047763       __fltout2                  10048763 f   LIBCMT:cfout.obj
 0001:000477bf       ___dtold                   100487bf f   LIBCMT:cfout.obj
 0001:00047875       __fptrap                   10048875 f   LIBCMT:crt0fp.obj
 0001:0004787e       __dosmaperr                1004887e f   LIBCMT:dosmap.obj
 0001:000478f1       __errno                    100488f1 f   LIBCMT:dosmap.obj
 0001:000478fa       ___doserrno                100488fa f   LIBCMT:dosmap.obj
 0001:00047903       ___crtMessageBoxA          10048903 f   LIBCMT:crtmbox.obj
 0001:0004798c       _calloc                    1004898c f   LIBCMT:calloc.obj
 0001:00047ac9       __setmbcp                  10048ac9 f   LIBCMT:mbctype.obj
 0001:00047ea1       ___initmbctable            10048ea1 f   LIBCMT:mbctype.obj
 0001:00047ebd       _strtol                    10048ebd f   LIBCMT:strtol.obj
 0001:000480d9       __free_osfhnd              100490d9 f   LIBCMT:osfinfo.obj
 0001:00048158       __get_osfhandle            10049158 f   LIBCMT:osfinfo.obj
 0001:0004819a       __lock_fhandle             1004919a f   LIBCMT:osfinfo.obj
 0001:000481f9       __unlock_fhandle           100491f9 f   LIBCMT:osfinfo.obj
 0001:0004821b       __fcloseall                1004921b f   LIBCMT:closeall.obj
 0001:0004829c       __fflush_lk                1004929c f   LIBCMT:fflush.obj
 0001:000482ca       __flush                    100492ca f   LIBCMT:fflush.obj
 0001:00048326       __flushall                 10049326 f   LIBCMT:fflush.obj
 0001:000483e0       __stricmp                  100493e0 f   LIBCMT:stricmp.obj
 0001:000483e0       __strcmpi                  100493e0 f   LIBCMT:stricmp.obj
 0001:000484b0       __strnicmp                 100494b0 f   LIBCMT:strnicmp.obj
 0001:000485b1       ___addl                    100495b1 f   LIBCMT:mantold.obj
 0001:000485d2       ___add_12                  100495d2 f   LIBCMT:mantold.obj
 0001:00048630       ___shl_12                  10049630 f   LIBCMT:mantold.obj
 0001:0004865e       ___shr_12                  1004965e f   LIBCMT:mantold.obj
 0001:0004868b       ___mtold12                 1004968b f   LIBCMT:mantold.obj
 0001:00048752       ___strgtold12              10049752 f   LIBCMT:strgtold.obj
 0001:00048c23       _$I10_OUTPUT               10049c23 f   LIBCMT:x10fout.obj
 0001:00048eb6       _fclose                    10049eb6 f   LIBCMT:fclose.obj
 0001:00048ee7       __fclose_lk                10049ee7 f   LIBCMT:fclose.obj
 0001:00048f33       __commit                   10049f33 f   LIBCMT:commit.obj
 0001:00048fc6       ___ld12mul                 10049fc6 f   LIBCMT:tenpow.obj
 0001:000491e6       ___multtenpow12            1004a1e6 f   LIBCMT:tenpow.obj
 0001:00049262       __close                    1004a262 f   LIBCMT:close.obj
 0001:000492bf       __close_lk                 1004a2bf f   LIBCMT:close.obj
 0001:00049342       __freebuf                  1004a342 f   LIBCMT:_freebuf.obj
 0001:0004936e       _RtlUnwind@16              1004a36e f   kernel32:KERNEL32.dll
 0002:00000000       __imp__SetTextAlign@8      1004b000     gdi32:GDI32.dll
 0002:00000004       __imp__TranslateCharsetInfo@12 1004b004     gdi32:GDI32.dll
 0002:00000008       __imp__CombineRgn@16       1004b008     gdi32:GDI32.dll
 0002:0000000c       __imp__DeleteObject@4      1004b00c     gdi32:GDI32.dll
 0002:00000010       __imp__CreatePalette@4     1004b010     gdi32:GDI32.dll
 0002:00000014       __imp__CreateFontIndirectA@4 1004b014     gdi32:GDI32.dll
 0002:00000018       __imp__DeleteDC@4          1004b018     gdi32:GDI32.dll
 0002:0000001c       __imp__SelectPalette@12    1004b01c     gdi32:GDI32.dll
 0002:00000020       __imp__SelectObject@8      1004b020     gdi32:GDI32.dll
 0002:00000024       __imp__CreateCompatibleDC@4 1004b024     gdi32:GDI32.dll
 0002:00000028       __imp__CreateCompatibleBitmap@12 1004b028     gdi32:GDI32.dll
 0002:0000002c       __imp__CreatePen@12        1004b02c     gdi32:GDI32.dll
 0002:00000030       __imp__CreateSolidBrush@4  1004b030     gdi32:GDI32.dll
 0002:00000034       __imp__GetNearestColor@8   1004b034     gdi32:GDI32.dll
 0002:00000038       __imp__GetDeviceCaps@8     1004b038     gdi32:GDI32.dll
 0002:0000003c       __imp__MoveToEx@16         1004b03c     gdi32:GDI32.dll
 0002:00000040       __imp__LineTo@12           1004b040     gdi32:GDI32.dll
 0002:00000044       __imp__Polygon@12          1004b044     gdi32:GDI32.dll
 0002:00000048       __imp__Rectangle@20        1004b048     gdi32:GDI32.dll
 0002:0000004c       __imp__ExtTextOutA@32      1004b04c     gdi32:GDI32.dll
 0002:00000050       __imp__SetBkColor@8        1004b050     gdi32:GDI32.dll
 0002:00000054       __imp__CreatePatternBrush@4 1004b054     gdi32:GDI32.dll
 0002:00000058       __imp__RoundRect@28        1004b058     gdi32:GDI32.dll
 0002:0000005c       __imp__CreateDIBSection@24 1004b05c     gdi32:GDI32.dll
 0002:00000060       __imp__Ellipse@20          1004b060     gdi32:GDI32.dll
 0002:00000064       __imp__BitBlt@36           1004b064     gdi32:GDI32.dll
 0002:00000068       __imp__GetTextExtentPoint32W@16 1004b068     gdi32:GDI32.dll
 0002:0000006c       __imp__ExtTextOutW@32      1004b06c     gdi32:GDI32.dll
 0002:00000070       __imp__GetTextExtentPoint32A@16 1004b070     gdi32:GDI32.dll
 0002:00000074       __imp__SetTextColor@8      1004b074     gdi32:GDI32.dll
 0002:00000078       __imp__SetBkMode@8         1004b078     gdi32:GDI32.dll
 0002:0000007c       __imp__GetTextExtentExPointA@28 1004b07c     gdi32:GDI32.dll
 0002:00000080       __imp__GetTextExtentExPointW@28 1004b080     gdi32:GDI32.dll
 0002:00000084       __imp__GetTextMetricsA@8   1004b084     gdi32:GDI32.dll
 0002:00000088       __imp__CreateBitmap@20     1004b088     gdi32:GDI32.dll
 0002:0000008c       __imp__IntersectClipRect@20 1004b08c     gdi32:GDI32.dll
 0002:00000090       __imp__RealizePalette@4    1004b090     gdi32:GDI32.dll
 0002:00000094       __imp__CreateRectRgn@16    1004b094     gdi32:GDI32.dll
 0002:00000098       __imp__GetStockObject@4    1004b098     gdi32:GDI32.dll
 0002:0000009c       __imp__GetObjectA@12       1004b09c     gdi32:GDI32.dll
 0002:000000a0       \177GDI32_NULL_THUNK_DATA  1004b0a0     gdi32:GDI32.dll
 0002:000000a4       __imp__ImmReleaseContext@8 1004b0a4     imm32:IMM32.dll
 0002:000000a8       __imp__ImmSetCompositionWindow@8 1004b0a8     imm32:IMM32.dll
 0002:000000ac       __imp__ImmGetCompositionStringW@16 1004b0ac     imm32:IMM32.dll
 0002:000000b0       __imp__ImmGetContext@4     1004b0b0     imm32:IMM32.dll
 0002:000000b4       __imp__ImmNotifyIME@16     1004b0b4     imm32:IMM32.dll
 0002:000000b8       __imp__ImmSetCompositionFontA@8 1004b0b8     imm32:IMM32.dll
 0002:000000bc       \177IMM32_NULL_THUNK_DATA  1004b0bc     imm32:IMM32.dll
 0002:000000c0       __imp__GlobalFree@4        1004b0c0     kernel32:KERNEL32.dll
 0002:000000c4       __imp__GlobalAlloc@8       1004b0c4     kernel32:KERNEL32.dll
 0002:000000c8       __imp__IsValidCodePage@4   1004b0c8     kernel32:KERNEL32.dll
 0002:000000cc       __imp__GetCPInfo@8         1004b0cc     kernel32:KERNEL32.dll
 0002:000000d0       __imp__GlobalLock@4        1004b0d0     kernel32:KERNEL32.dll
 0002:000000d4       __imp__GlobalSize@4        1004b0d4     kernel32:KERNEL32.dll
 0002:000000d8       __imp__GlobalUnlock@4      1004b0d8     kernel32:KERNEL32.dll
 0002:000000dc       __imp__GetTickCount@0      1004b0dc     kernel32:KERNEL32.dll
 0002:000000e0       __imp__GetLocaleInfoA@16   1004b0e0     kernel32:KERNEL32.dll
 0002:000000e4       __imp__WideCharToMultiByte@32 1004b0e4     kernel32:KERNEL32.dll
 0002:000000e8       __imp__DeleteCriticalSection@4 1004b0e8     kernel32:KERNEL32.dll
 0002:000000ec       __imp__GetVersionExA@4     1004b0ec     kernel32:KERNEL32.dll
 0002:000000f0       __imp__InitializeCriticalSection@4 1004b0f0     kernel32:KERNEL32.dll
 0002:000000f4       __imp__FreeLibrary@4       1004b0f4     kernel32:KERNEL32.dll
 0002:000000f8       __imp__GetProcAddress@8    1004b0f8     kernel32:KERNEL32.dll
 0002:000000fc       __imp__LoadLibraryA@4      1004b0fc     kernel32:KERNEL32.dll
 0002:00000100       __imp__GetModuleHandleA@4  1004b100     kernel32:KERNEL32.dll
 0002:00000104       __imp__GetACP@0            1004b104     kernel32:KERNEL32.dll
 0002:00000108       __imp__IsDBCSLeadByteEx@8  1004b108     kernel32:KERNEL32.dll
 0002:0000010c       __imp__MultiByteToWideChar@24 1004b10c     kernel32:KERNEL32.dll
 0002:00000110       __imp__MulDiv@12           1004b110     kernel32:KERNEL32.dll
 0002:00000114       __imp__LeaveCriticalSection@4 1004b114     kernel32:KERNEL32.dll
 0002:00000118       __imp__SetStdHandle@8      1004b118     kernel32:KERNEL32.dll
 0002:0000011c       __imp__GetOEMCP@0          1004b11c     kernel32:KERNEL32.dll
 0002:00000120       __imp__FlushFileBuffers@4  1004b120     kernel32:KERNEL32.dll
 0002:00000124       __imp__SetFilePointer@16   1004b124     kernel32:KERNEL32.dll
 0002:00000128       __imp__GetStringTypeW@16   1004b128     kernel32:KERNEL32.dll
 0002:0000012c       __imp__RtlUnwind@16        1004b12c     kernel32:KERNEL32.dll
 0002:00000130       __imp__GetStringTypeA@20   1004b130     kernel32:KERNEL32.dll
 0002:00000134       __imp__VirtualFree@12      1004b134     kernel32:KERNEL32.dll
 0002:00000138       __imp__HeapCreate@12       1004b138     kernel32:KERNEL32.dll
 0002:0000013c       __imp__VirtualAlloc@16     1004b13c     kernel32:KERNEL32.dll
 0002:00000140       __imp__GetEnvironmentVariableA@12 1004b140     kernel32:KERNEL32.dll
 0002:00000144       __imp__GetEnvironmentStringsW@0 1004b144     kernel32:KERNEL32.dll
 0002:00000148       __imp__HeapDestroy@4       1004b148     kernel32:KERNEL32.dll
 0002:0000014c       __imp__FreeEnvironmentStringsW@4 1004b14c     kernel32:KERNEL32.dll
 0002:00000150       __imp__FreeEnvironmentStringsA@4 1004b150     kernel32:KERNEL32.dll
 0002:00000154       __imp__GetEnvironmentStrings@0 1004b154     kernel32:KERNEL32.dll
 0002:00000158       __imp__GetFileType@4       1004b158     kernel32:KERNEL32.dll
 0002:0000015c       __imp__SetHandleCount@4    1004b15c     kernel32:KERNEL32.dll
 0002:00000160       __imp__GetStartupInfoA@4   1004b160     kernel32:KERNEL32.dll
 0002:00000164       __imp__TlsGetValue@4       1004b164     kernel32:KERNEL32.dll
 0002:00000168       __imp__SetLastError@4      1004b168     kernel32:KERNEL32.dll
 0002:0000016c       __imp__TlsAlloc@0          1004b16c     kernel32:KERNEL32.dll
 0002:00000170       __imp__TlsSetValue@8       1004b170     kernel32:KERNEL32.dll
 0002:00000174       __imp__TlsFree@4           1004b174     kernel32:KERNEL32.dll
 0002:00000178       __imp__GetModuleFileNameA@12 1004b178     kernel32:KERNEL32.dll
 0002:0000017c       __imp__EnterCriticalSection@4 1004b17c     kernel32:KERNEL32.dll
 0002:00000180       __imp__GetCurrentThreadId@0 1004b180     kernel32:KERNEL32.dll
 0002:00000184       __imp__GetStdHandle@4      1004b184     kernel32:KERNEL32.dll
 0002:00000188       __imp__WriteFile@20        1004b188     kernel32:KERNEL32.dll
 0002:0000018c       __imp__GetLastError@0      1004b18c     kernel32:KERNEL32.dll
 0002:00000190       __imp__HeapSize@12         1004b190     kernel32:KERNEL32.dll
 0002:00000194       __imp__HeapReAlloc@16      1004b194     kernel32:KERNEL32.dll
 0002:00000198       __imp__GetCurrentProcess@0 1004b198     kernel32:KERNEL32.dll
 0002:0000019c       __imp__TerminateProcess@8  1004b19c     kernel32:KERNEL32.dll
 0002:000001a0       __imp__LCMapStringW@24     1004b1a0     kernel32:KERNEL32.dll
 0002:000001a4       __imp__LCMapStringA@24     1004b1a4     kernel32:KERNEL32.dll
 0002:000001a8       __imp__ExitProcess@4       1004b1a8     kernel32:KERNEL32.dll
 0002:000001ac       __imp__HeapAlloc@12        1004b1ac     kernel32:KERNEL32.dll
 0002:000001b0       __imp__HeapFree@12         1004b1b0     kernel32:KERNEL32.dll
 0002:000001b4       __imp__GetVersion@0        1004b1b4     kernel32:KERNEL32.dll
 0002:000001b8       __imp__GetCommandLineA@0   1004b1b8     kernel32:KERNEL32.dll
 0002:000001bc       __imp__GetSystemTimeAsFileTime@4 1004b1bc     kernel32:KERNEL32.dll
 0002:000001c0       __imp__CloseHandle@4       1004b1c0     kernel32:KERNEL32.dll
 0002:000001c4       __imp__InterlockedIncrement@4 1004b1c4     kernel32:KERNEL32.dll
 0002:000001c8       __imp__InterlockedDecrement@4 1004b1c8     kernel32:KERNEL32.dll
 0002:000001cc       \177KERNEL32_NULL_THUNK_DATA 1004b1cc     kernel32:KERNEL32.dll
 0002:000001d0       __imp__GetDC@4             1004b1d0     user32:USER32.dll
 0002:000001d4       __imp__GetSystemMetrics@4  1004b1d4     user32:USER32.dll
 0002:000001d8       __imp__SetCursor@4         1004b1d8     user32:USER32.dll
 0002:000001dc       __imp__SendMessageA@16     1004b1dc     user32:USER32.dll
 0002:000001e0       __imp__MapWindowPoints@16  1004b1e0     user32:USER32.dll
 0002:000001e4       __imp__CreateWindowExA@48  1004b1e4     user32:USER32.dll
 0002:000001e8       __imp__ReleaseDC@8         1004b1e8     user32:USER32.dll
 0002:000001ec       __imp__DrawTextW@20        1004b1ec     user32:USER32.dll
 0002:000001f0       __imp__DrawFocusRect@8     1004b1f0     user32:USER32.dll
 0002:000001f4       __imp__DrawTextA@20        1004b1f4     user32:USER32.dll
 0002:000001f8       __imp__LoadCursorA@8       1004b1f8     user32:USER32.dll
 0002:000001fc       __imp__InflateRect@12      1004b1fc     user32:USER32.dll
 0002:00000200       __imp__GetClientRect@8     1004b200     user32:USER32.dll
 0002:00000204       __imp__GetWindowLongA@8    1004b204     user32:USER32.dll
 0002:00000208       __imp__SetWindowPos@28     1004b208     user32:USER32.dll
 0002:0000020c       __imp__GetWindowRect@8     1004b20c     user32:USER32.dll
 0002:00000210       __imp__DestroyWindow@4     1004b210     user32:USER32.dll
 0002:00000214       __imp__FillRect@12         1004b214     user32:USER32.dll
 0002:00000218       __imp__GetSysColor@4       1004b218     user32:USER32.dll
 0002:0000021c       __imp__AdjustWindowRectEx@16 1004b21c     user32:USER32.dll
 0002:00000220       __imp__GetCursorPos@4      1004b220     user32:USER32.dll
 0002:00000224       __imp__SetCapture@4        1004b224     user32:USER32.dll
 0002:00000228       __imp__DefWindowProcA@16   1004b228     user32:USER32.dll
 0002:0000022c       __imp__EndPaint@8          1004b22c     user32:USER32.dll
 0002:00000230       __imp__BeginPaint@8        1004b230     user32:USER32.dll
 0002:00000234       __imp__GetParent@4         1004b234     user32:USER32.dll
 0002:00000238       __imp__CallWindowProcA@20  1004b238     user32:USER32.dll
 0002:0000023c       __imp__ReleaseCapture@0    1004b23c     user32:USER32.dll
 0002:00000240       __imp__SetWindowLongA@12   1004b240     user32:USER32.dll
 0002:00000244       __imp__UnregisterClassA@8  1004b244     user32:USER32.dll
 0002:00000248       __imp__CreatePopupMenu@0   1004b248     user32:USER32.dll
 0002:0000024c       __imp__DestroyMenu@4       1004b24c     user32:USER32.dll
 0002:00000250       __imp__TrackPopupMenu@28   1004b250     user32:USER32.dll
 0002:00000254       __imp__GetDoubleClickTime@0 1004b254     user32:USER32.dll
 0002:00000258       __imp__GetKeyState@4       1004b258     user32:USER32.dll
 0002:0000025c       __imp__RegisterClassExA@4  1004b25c     user32:USER32.dll
 0002:00000260       __imp__GetKeyboardLayout@4 1004b260     user32:USER32.dll
 0002:00000264       __imp__RegisterClipboardFormatA@4 1004b264     user32:USER32.dll
 0002:00000268       __imp__GetUpdateRgn@12     1004b268     user32:USER32.dll
 0002:0000026c       __imp__SetFocus@4          1004b26c     user32:USER32.dll
 0002:00000270       __imp__PostMessageA@16     1004b270     user32:USER32.dll
 0002:00000274       __imp__MsgWaitForMultipleObjects@20 1004b274     user32:USER32.dll
 0002:00000278       __imp__DestroyCaret@0      1004b278     user32:USER32.dll
 0002:0000027c       __imp__HideCaret@4         1004b27c     user32:USER32.dll
 0002:00000280       __imp__EmptyClipboard@0    1004b280     user32:USER32.dll
 0002:00000284       __imp__CreateCaret@16      1004b284     user32:USER32.dll
 0002:00000288       __imp__ShowCaret@4         1004b288     user32:USER32.dll
 0002:0000028c       __imp__AppendMenuA@16      1004b28c     user32:USER32.dll
 0002:00000290       __imp__SetClipboardData@8  1004b290     user32:USER32.dll
 0002:00000294       __imp__SystemParametersInfoA@16 1004b294     user32:USER32.dll
 0002:00000298       __imp__CloseClipboard@0    1004b298     user32:USER32.dll
 0002:0000029c       __imp__OpenClipboard@4     1004b29c     user32:USER32.dll
 0002:000002a0       __imp__GetClipboardData@4  1004b2a0     user32:USER32.dll
 0002:000002a4       __imp__SetScrollInfo@16    1004b2a4     user32:USER32.dll
 0002:000002a8       __imp__IsClipboardFormatAvailable@4 1004b2a8     user32:USER32.dll
 0002:000002ac       __imp__GetScrollInfo@12    1004b2ac     user32:USER32.dll
 0002:000002b0       __imp__UpdateWindow@4      1004b2b0     user32:USER32.dll
 0002:000002b4       __imp__SetCaretPos@8       1004b2b4     user32:USER32.dll
 0002:000002b8       __imp__ScrollWindow@20     1004b2b8     user32:USER32.dll
 0002:000002bc       __imp__IsChild@8           1004b2bc     user32:USER32.dll
 0002:000002c0       __imp__SetTimer@16         1004b2c0     user32:USER32.dll
 0002:000002c4       __imp__KillTimer@8         1004b2c4     user32:USER32.dll
 0002:000002c8       __imp__ClientToScreen@8    1004b2c8     user32:USER32.dll
 0002:000002cc       __imp__GetDlgCtrlID@4      1004b2cc     user32:USER32.dll
 0002:000002d0       __imp__ScreenToClient@8    1004b2d0     user32:USER32.dll
 0002:000002d4       __imp__InvalidateRect@12   1004b2d4     user32:USER32.dll
 0002:000002d8       __imp__ShowWindow@8        1004b2d8     user32:USER32.dll
 0002:000002dc       __imp__GetMessageTime@0    1004b2dc     user32:USER32.dll
 0002:000002e0       \177USER32_NULL_THUNK_DATA 1004b2e0     user32:USER32.dll
 0002:000002e4       __imp__RegisterDragDrop@8  1004b2e4     ole32:ole32.dll
 0002:000002e8       __imp__DoDragDrop@16       1004b2e8     ole32:ole32.dll
 0002:000002ec       __imp__OleUninitialize@0   1004b2ec     ole32:ole32.dll
 0002:000002f0       __imp__OleInitialize@4     1004b2f0     ole32:ole32.dll
 0002:000002f4       __imp__RevokeDragDrop@4    1004b2f4     ole32:ole32.dll
 0002:000002f8       \177ole32_NULL_THUNK_DATA  1004b2f8     ole32:ole32.dll
 0002:00000300       ??_7Window@@6B@            1004b300     CallTip.obj
 0002:00000308       ??_7OneLine@@6B@           1004b308     ContractionState.obj
 0002:0000030c       ??_7ContractionState@@6B@  1004b30c     ContractionState.obj
 0002:00000310       ??_7Document@@6B@          1004b310     Document.obj
 0002:00000314       ??_7CharacterIndexer@@6B@  1004b314     Document.obj
 0002:0000031c       ??_7DocumentIndexer@@6B@   1004b31c     Document.obj
 0002:00000324       ??_7Accessor@@6B@          1004b324     DocumentAccessor.obj
 0002:00000378       ??_7LineLayout@@6B@        1004b378     Editor.obj
 0002:0000037c       ??_7LineLayoutCache@@6B@   1004b37c     Editor.obj
 0002:00000380       ??_7Editor@@6B@            1004b380     Editor.obj
 0002:00000428       ??_7DocWatcher@@6B@        1004b428     Editor.obj
 0002:00000440       ??_7ExternalLexerModule@@6B@ 1004b440     ExternalLexer.obj
 0002:00000450       ??_7LexerModule@@6B@       1004b450     ExternalLexer.obj
 0002:00000460       ?MapDefault@KeyMap@@0QBVKeyToCommand@@B 1004b460     KeyMap.obj
 0002:00000ce4       ??_7FontCached@@6B@        1004bce4     PlatWin.obj
 0002:00000cf0       ??_7SFont@@6B@             1004bcf0     PlatWin.obj
 0002:00000cfc       ??_7SurfaceImpl@@6B@       1004bcfc     PlatWin.obj
 0002:00000d8c       ??_7Surface@@6B@           1004bd8c     PlatWin.obj
 0002:00000e1c       ??_7ListBox@@6B@           1004be1c     PlatWin.obj
 0002:00000e68       ??_7ListBoxX@@6B@          1004be68     PlatWin.obj
 0002:00000eb4       ??_7DynamicLibraryImpl@@6B@ 1004beb4     PlatWin.obj
 0002:00000ec0       ??_7DynamicLibrary@@6B@    1004bec0     PlatWin.obj
 0002:00000ed4       ??_7ScintillaBase@@6B@     1004bed4     ScintillaBase.obj
 0002:00000f84       ??_7DocumentAccessor@@6B@  1004bf84     ScintillaBase.obj
 0002:00000fec       ??_7ScintillaWin@@6B@      1004bfec     ScintillaWin.obj
 0002:000010a8       _IID_IEnumFORMATETC        1004c0a8     uuid:objidl_i_guid24.obj
 0002:000010b8       _IID_IUnknown              1004c0b8     uuid:unknwn_i_guid0.obj
 0002:000010c8       _IID_IDataObject           1004c0c8     uuid:objidl_i_guid31.obj
 0002:000010d8       _IID_IDropTarget           1004c0d8     uuid:oleidl_i_guid20.obj
 0002:000010e8       _IID_IDropSource           1004c0e8     uuid:oleidl_i_guid19.obj
 0002:00001128       ___lookuptable             1004c128     LIBCMT:output.obj
 0002:00001184       ??_C@_1O@POHA@?$AA?$CI?$AAn?$AAu?$AAl?$AAl?$AA?$CJ?$AA?$AA@ 1004c184     LIBCMT:output.obj
 0002:00001194       ??_C@_06ONKE@?$CInull?$CJ?$AA@ 1004c194     LIBCMT:output.obj
 0002:0000119c       ??_C@_01A@?$AA?$AA@        1004c19c     LIBCMT:a_map.obj
 0002:000011a0       ??_C@_13A@?$AA?$AA?$AA?$AA@ 1004c1a0     LIBCMT:a_map.obj
 0002:000011f0       __real@8@3fff8000000000000000 1004c1f0     LIBCMT:testfdiv.obj
 0002:000011f8       __real@8@4015800bf60000000000 1004c1f8     LIBCMT:testfdiv.obj
 0002:00001200       __real@8@4014bffffc0000000000 1004c200     LIBCMT:testfdiv.obj
 0002:00001208       ??_C@_0BK@JEGK@IsProcessorFeaturePresent?$AA@ 1004c208     LIBCMT:testfdiv.obj
 0002:00001224       ??_C@_08OBID@KERNEL32?$AA@ 1004c224     LIBCMT:testfdiv.obj
 0002:00001230       __real@8@00000000000000000000 1004c230     LIBCMT:cvt.obj
 0002:00001238       ??_C@_05OFLO@e?$CL000?$AA@ 1004c238     LIBCMT:cvt.obj
 0002:00001240       ??_C@_0P@GGKG@runtime?5error?5?$AA@ 1004c240     LIBCMT:crt0msg.obj
 0002:00001250       ??_C@_0O@DELO@TLOSS?5error?$AN?6?$AA@ 1004c250     LIBCMT:crt0msg.obj
 0002:00001260       ??_C@_0N@OMLL@SING?5error?$AN?6?$AA@ 1004c260     LIBCMT:crt0msg.obj
 0002:00001270       ??_C@_0P@OJAK@DOMAIN?5error?$AN?6?$AA@ 1004c270     LIBCMT:crt0msg.obj
 0002:00001280       ??_C@_0CF@EANP@R6028?$AN?6?9?5unable?5to?5initialize?5he@ 1004c280     LIBCMT:crt0msg.obj
 0002:000012a8       ??_C@_0DF@ECGN@R6027?$AN?6?9?5not?5enough?5space?5for?5lo@ 1004c2a8     LIBCMT:crt0msg.obj
 0002:000012e0       ??_C@_0DF@FKAC@R6026?$AN?6?9?5not?5enough?5space?5for?5st@ 1004c2e0     LIBCMT:crt0msg.obj
 0002:00001318       ??_C@_0CG@DPMN@R6025?$AN?6?9?5pure?5virtual?5function?5c@ 1004c318     LIBCMT:crt0msg.obj
 0002:00001340       ??_C@_0DF@CKIP@R6024?$AN?6?9?5not?5enough?5space?5for?5_o@ 1004c340     LIBCMT:crt0msg.obj
 0002:00001378       ??_C@_0CJ@GGOE@R6019?$AN?6?9?5unable?5to?5open?5console?5@ 1004c378     LIBCMT:crt0msg.obj
 0002:000013a4       ??_C@_0CB@LBOB@R6018?$AN?6?9?5unexpected?5heap?5error?$AN?6@ 1004c3a4     LIBCMT:crt0msg.obj
 0002:000013c8       ??_C@_0CN@FPEG@R6017?$AN?6?9?5unexpected?5multithread?5@ 1004c3c8     LIBCMT:crt0msg.obj
 0002:000013f8       ??_C@_0CM@OBIC@R6016?$AN?6?9?5not?5enough?5space?5for?5th@ 1004c3f8     LIBCMT:crt0msg.obj
 0002:00001424       ??_C@_0CB@HPAL@?$AN?6abnormal?5program?5termination?$AN?6@ 1004c424     LIBCMT:crt0msg.obj
 0002:00001448       ??_C@_0CM@JOOB@R6009?$AN?6?9?5not?5enough?5space?5for?5en@ 1004c448     LIBCMT:crt0msg.obj
 0002:00001474       ??_C@_0CK@OIBL@R6008?$AN?6?9?5not?5enough?5space?5for?5ar@ 1004c474     LIBCMT:crt0msg.obj
 0002:000014a0       ??_C@_0CF@LKPB@R6002?$AN?6?9?5floating?5point?5not?5load@ 1004c4a0     LIBCMT:crt0msg.obj
 0002:000014c8       ??_C@_0CF@JPDF@Microsoft?5Visual?5C?$CL?$CL?5Runtime?5Lib@ 1004c4c8     LIBCMT:crt0msg.obj
 0002:000014f0       ??_C@_02JJJH@?6?6?$AA@     1004c4f0     LIBCMT:crt0msg.obj
 0002:000014f4       ??_C@_0BK@DEOK@Runtime?5Error?$CB?6?6Program?3?5?$AA@ 1004c4f4     LIBCMT:crt0msg.obj
 0002:00001510       ??_C@_0BH@NNCD@?$DMprogram?5name?5unknown?$DO?$AA@ 1004c510     LIBCMT:crt0msg.obj
 0002:00001528       ??_C@_0BH@PHHF@__GLOBAL_HEAP_SELECTED?$AA@ 1004c528     LIBCMT:heapinit.obj
 0002:00001540       ??_C@_0BF@BBGL@__MSVCRT_HEAP_SELECT?$AA@ 1004c540     LIBCMT:heapinit.obj
 0002:00001564       ??_C@_0BD@NJFP@GetLastActivePopup?$AA@ 1004c564     LIBCMT:crtmbox.obj
 0002:00001578       ??_C@_0BA@GILI@GetActiveWindow?$AA@ 1004c578     LIBCMT:crtmbox.obj
 0002:00001588       ??_C@_0M@PKCK@MessageBoxA?$AA@ 1004c588     LIBCMT:crtmbox.obj
 0002:00001594       ??_C@_0L@HKL@user32?4dll?$AA@ 1004c594     LIBCMT:crtmbox.obj
 0002:000015b8       ??_C@_07CJME@H?3mm?3ss?$AA@ 1004c5b8     LIBCMT:strftime.obj
 0002:000015c0       ??_C@_0BE@MHI@dddd?0?5MMMM?5dd?0?5yyyy?$AA@ 1004c5c0     LIBCMT:strftime.obj
 0002:000015d4       ??_C@_06HCAD@M?1d?1yy?$AA@ 1004c5d4     LIBCMT:strftime.obj
 0002:000015dc       ??_C@_02DBLP@PM?$AA@       1004c5dc     LIBCMT:strftime.obj
 0002:000015e0       ??_C@_02ENLM@AM?$AA@       1004c5e0     LIBCMT:strftime.obj
 0002:000015e4       ??_C@_08LIDF@December?$AA@ 1004c5e4     LIBCMT:strftime.obj
 0002:000015f0       ??_C@_08NJLI@November?$AA@ 1004c5f0     LIBCMT:strftime.obj
 0002:000015fc       ??_C@_07IAMM@October?$AA@  1004c5fc     LIBCMT:strftime.obj
 0002:00001604       ??_C@_09MKGD@September?$AA@ 1004c604     LIBCMT:strftime.obj
 0002:00001610       ??_C@_06PADP@August?$AA@   1004c610     LIBCMT:strftime.obj
 0002:00001618       ??_C@_04PIJO@July?$AA@     1004c618     LIBCMT:strftime.obj
 0002:00001620       ??_C@_04ICFP@June?$AA@     1004c620     LIBCMT:strftime.obj
 0002:00001628       ??_C@_05JFGC@April?$AA@    1004c628     LIBCMT:strftime.obj
 0002:00001630       ??_C@_05FGPD@March?$AA@    1004c630     LIBCMT:strftime.obj
 0002:00001638       ??_C@_08PGBA@February?$AA@ 1004c638     LIBCMT:strftime.obj
 0002:00001644       ??_C@_07BPKJ@January?$AA@  1004c644     LIBCMT:strftime.obj
 0002:0000164c       ??_C@_03PGJO@Dec?$AA@      1004c64c     LIBCMT:strftime.obj
 0002:00001650       ??_C@_03PDLM@Nov?$AA@      1004c650     LIBCMT:strftime.obj
 0002:00001654       ??_C@_03BLHK@Oct?$AA@      1004c654     LIBCMT:strftime.obj
 0002:00001658       ??_C@_03DPFM@Sep?$AA@      1004c658     LIBCMT:strftime.obj
 0002:0000165c       ??_C@_03CMCH@Aug?$AA@      1004c65c     LIBCMT:strftime.obj
 0002:00001660       ??_C@_03OBKI@Jul?$AA@      1004c660     LIBCMT:strftime.obj
 0002:00001664       ??_C@_03LEIG@Jun?$AA@      1004c664     LIBCMT:strftime.obj
 0002:00001668       ??_C@_03MGHB@May?$AA@      1004c668     LIBCMT:strftime.obj
 0002:0000166c       ??_C@_03MJJM@Apr?$AA@      1004c66c     LIBCMT:strftime.obj
 0002:00001670       ??_C@_03GNHA@Mar?$AA@      1004c670     LIBCMT:strftime.obj
 0002:00001674       ??_C@_03PICE@Feb?$AA@      1004c674     LIBCMT:strftime.obj
 0002:00001678       ??_C@_03IEIF@Jan?$AA@      1004c678     LIBCMT:strftime.obj
 0002:0000167c       ??_C@_08FAKH@Saturday?$AA@ 1004c67c     LIBCMT:strftime.obj
 0002:00001688       ??_C@_06ONCK@Friday?$AA@   1004c688     LIBCMT:strftime.obj
 0002:00001690       ??_C@_08CCFO@Thursday?$AA@ 1004c690     LIBCMT:strftime.obj
 0002:0000169c       ??_C@_09PBIN@Wednesday?$AA@ 1004c69c     LIBCMT:strftime.obj
 0002:000016a8       ??_C@_07BMBC@Tuesday?$AA@  1004c6a8     LIBCMT:strftime.obj
 0002:000016b0       ??_C@_06CHLK@Monday?$AA@   1004c6b0     LIBCMT:strftime.obj
 0002:000016b8       ??_C@_06OOEM@Sunday?$AA@   1004c6b8     LIBCMT:strftime.obj
 0002:000016c0       ??_C@_03MPKK@Sat?$AA@      1004c6c0     LIBCMT:strftime.obj
 0002:000016c4       ??_C@_03FINJ@Fri?$AA@      1004c6c4     LIBCMT:strftime.obj
 0002:000016c8       ??_C@_03HIKC@Thu?$AA@      1004c6c8     LIBCMT:strftime.obj
 0002:000016cc       ??_C@_03HECK@Wed?$AA@      1004c6cc     LIBCMT:strftime.obj
 0002:000016d0       ??_C@_03ECCP@Tue?$AA@      1004c6d0     LIBCMT:strftime.obj
 0002:000016d4       ??_C@_03PIEP@Mon?$AA@      1004c6d4     LIBCMT:strftime.obj
 0002:000016d8       ??_C@_03FHEP@Sun?$AA@      1004c6d8     LIBCMT:strftime.obj
 0002:000016dc       ??_C@_06PAPI@1?$CDQNAN?$AA@ 1004c6dc     LIBCMT:x10fout.obj
 0002:000016e4       ??_C@_05BGNL@1?$CDINF?$AA@ 1004c6e4     LIBCMT:x10fout.obj
 0002:000016ec       ??_C@_05EDPF@1?$CDIND?$AA@ 1004c6ec     LIBCMT:x10fout.obj
 0002:000016f4       ??_C@_06LKFM@1?$CDSNAN?$AA@ 1004c6f4     LIBCMT:x10fout.obj
 0002:000016fc       ___dnames                  1004c6fc     LIBCMT:timeset.obj
 0002:00001714       ___mnames                  1004c714     LIBCMT:timeset.obj
 0002:0000173c       __IMPORT_DESCRIPTOR_KERNEL32 1004c73c     kernel32:KERNEL32.dll
 0002:00001750       __IMPORT_DESCRIPTOR_USER32 1004c750     user32:USER32.dll
 0002:00001764       __IMPORT_DESCRIPTOR_GDI32  1004c764     gdi32:GDI32.dll
 0002:00001778       __IMPORT_DESCRIPTOR_ole32  1004c778     ole32:ole32.dll
 0002:0000178c       __IMPORT_DESCRIPTOR_IMM32  1004c78c     imm32:IMM32.dll
 0002:000017a0       __NULL_IMPORT_DESCRIPTOR   1004c7a0     kernel32:KERNEL32.dll
 0003:00000000       ___xc_a                    1004e000     LIBCMT:crt0init.obj
 0003:00000154       ___xc_z                    1004e154     LIBCMT:crt0init.obj
 0003:00000158       ___xi_a                    1004e158     LIBCMT:crt0init.obj
 0003:0000016c       ___xi_z                    1004e16c     LIBCMT:crt0init.obj
 0003:00000170       ___xp_a                    1004e170     LIBCMT:crt0init.obj
 0003:00000178       ___xp_z                    1004e178     LIBCMT:crt0init.obj
 0003:0000017c       ___xt_a                    1004e17c     LIBCMT:crt0init.obj
 0003:00000180       ___xt_z                    1004e180     LIBCMT:crt0init.obj
 0003:00000190       ??_C@_0BF@CFNB@No?5memory?5available?6?$AA@ 1004e190     CellBuffer.obj
 0003:000001a8       ??_C@_0BM@FPJI@Very?5Bad?5position?5?$CFd?5of?5?$CFd?6?$AA@ 1004e1a8     CellBuffer.obj
 0003:000001c4       ??_C@_0CC@JFFC@Bad?5GetCharRange?5?$CFd?5for?5?$CFd?5of?5?$CFd@ 1004e1c4     CellBuffer.obj
 0003:000001e8       ??_C@_01FEHD@?$AN?$AA@     1004e1e8     Document.obj
 0003:000001ec       ??_C@_01BJG@?6?$AA@        1004e1ec     Document.obj
 0003:000001f0       ??_C@_0BO@MFAH@Bad?5colour?5positions?5?$CFd?5?9?5?$CFd?6?$AA@ 1004e1f0     DocumentAccessor.obj
 0003:00000210       ??_C@_03JCBE@BAD?$AA@      1004e210     Editor.obj
 0003:00000214       ??_C@_02HPAF@US?$AA@       1004e214     Editor.obj
 0003:00000218       ??_C@_02BOFA@RS?$AA@       1004e218     Editor.obj
 0003:0000021c       ??_C@_02DIPJ@GS?$AA@       1004e21c     Editor.obj
 0003:00000220       ??_C@_02COFD@FS?$AA@       1004e220     Editor.obj
 0003:00000224       ??_C@_03DOGM@ESC?$AA@      1004e224     Editor.obj
 0003:00000228       ??_C@_03COBJ@SUB?$AA@      1004e228     Editor.obj
 0003:0000022c       ??_C@_02BHBG@EM?$AA@       1004e22c     Editor.obj
 0003:00000230       ??_C@_03MBJE@CAN?$AA@      1004e230     Editor.obj
 0003:00000234       ??_C@_03PFKO@ETB?$AA@      1004e234     Editor.obj
 0003:00000238       ??_C@_03DPAD@SYN?$AA@      1004e238     Editor.obj
 0003:0000023c       ??_C@_03ELKG@NAK?$AA@      1004e23c     Editor.obj
 0003:00000240       ??_C@_03NGG@DC4?$AA@       1004e240     Editor.obj
 0003:00000244       ??_C@_03FIID@DC3?$AA@      1004e244     Editor.obj
 0003:00000248       ??_C@_03PCBE@DC2?$AA@      1004e248     Editor.obj
 0003:0000024c       ??_C@_03NKN@DC1?$AA@       1004e24c     Editor.obj
 0003:00000250       ??_C@_03CNKA@DLE?$AA@      1004e250     Editor.obj
 0003:00000254       ??_C@_02KABM@SI?$AA@       1004e254     Editor.obj
 0003:00000258       ??_C@_02FPGO@SO?$AA@       1004e258     Editor.obj
 0003:0000025c       ??_C@_02MIME@CR?$AA@       1004e25c     Editor.obj
 0003:00000260       ??_C@_02IHOI@FF?$AA@       1004e260     Editor.obj
 0003:00000264       ??_C@_02BBBP@VT?$AA@       1004e264     Editor.obj
 0003:00000268       ??_C@_02BPOJ@LF?$AA@       1004e268     Editor.obj
 0003:0000026c       ??_C@_02LJBN@HT?$AA@       1004e26c     Editor.obj
 0003:00000270       ??_C@_02HEPJ@BS?$AA@       1004e270     Editor.obj
 0003:00000274       ??_C@_03JMAG@BEL?$AA@      1004e274     Editor.obj
 0003:00000278       ??_C@_03EICH@ACK?$AA@      1004e278     Editor.obj
 0003:0000027c       ??_C@_03FBMP@ENQ?$AA@      1004e27c     Editor.obj
 0003:00000280       ??_C@_03EHKO@EOT?$AA@      1004e280     Editor.obj
 0003:00000284       ??_C@_03FNEI@ETX?$AA@      1004e284     Editor.obj
 0003:00000288       ??_C@_03JAFF@STX?$AA@      1004e288     Editor.obj
 0003:0000028c       ??_C@_03NNCH@SOH?$AA@      1004e28c     Editor.obj
 0003:00000290       ??_C@_03COEA@NUL?$AA@      1004e290     Editor.obj
 0003:00000294       ??_C@_02PIMC@?$AN?6?$AA@   1004e294     Editor.obj
 0003:00000298       ??_C@_0P@IPMF@?$CFc?$CFc?5?$CF03X?5?$CF03X?$AA@ 1004e298     Editor.obj
 0003:000002a8       ??_C@_02MECO@?$CFd?$AA@    1004e2a8     Editor.obj
 0003:000002ac       ??_C@_05IKPC@?$CFd?5?5?5?$AA@ 1004e2ac     Editor.obj
 0003:000002b4       ??_C@_08KLCG@99999?5?5?5?$AA@ 1004e2b4     Editor.obj
 0003:000002c0       ??_C@_03MFGH@?5?5?5?$AA@   1004e2c0     Editor.obj
 0003:000002c4       ??_C@_01FCOA@?5?$AA@       1004e2c4     ExternalLexer.obj
 0003:000002c8       ??_C@_04KPLH@Fold?$AA@     1004e2c8     ExternalLexer.obj
 0003:000002d0       ??_C@_03GEFK@Lex?$AA@      1004e2d0     ExternalLexer.obj
 0003:000002d4       ??_C@_0N@BCMO@GetLexerName?$AA@ 1004e2d4     ExternalLexer.obj
 0003:000002e4       ??_C@_0O@FAIM@GetLexerCount?$AA@ 1004e2e4     ExternalLexer.obj
 0003:000002f4       ?nextLanguage@LexerModule@@1HA 1004e2f4     KeyWords.obj
 0003:000002fc       ??_C@_08EICH@Keywords?$AA@ 1004e2fc     LexAda.obj
 0003:00000308       ??_C@_03ONID@ada?$AA@      1004e308     LexAda.obj
 0003:0000030c       ??_C@_03MKE@all?$AA@       1004e30c     LexAda.obj
 0003:00000310       ??_C@_01KNFJ@?$CD?$AA@     1004e310     LexAda.obj
 0003:00000314       ??_C@_0BM@LPHP@Global?5classes?5and?5typedefs?$AA@ 1004e314     LexAIPI.obj
 0003:00000330       ??_C@_06FIHJ@Unused?$AA@   1004e330     LexAIPI.obj
 0003:00000338       ??_C@_0BP@GBMD@Documentation?5comment?5keywords?$AA@ 1004e338     LexAIPI.obj
 0003:00000358       ??_C@_0CD@JHGB@Secondary?5keywords?5and?5identifie@ 1004e358     LexAIPI.obj
 0003:0000037c       ??_C@_0CB@MPJN@Primary?5keywords?5and?5identifiers@ 1004e37c     LexAIPI.obj
 0003:000003a0       ??_C@_03BHBI@knw?$AA@      1004e3a0     LexAIPI.obj
 0003:000003a4       ??_C@_03DNBD@end?$AA@      1004e3a4     LexAIPI.obj
 0003:000003a8       ??_C@_02NEFL@if?$AA@       1004e3a8     LexAIPI.obj
 0003:000003ac       ??_C@_06HGLI@region?$AA@   1004e3ac     LexAIPI.obj
 0003:000003b4       ??_C@_0N@DDGF@fold?4at?4else?$AA@ 1004e3b4     LexAIPI.obj
 0003:000003c4       ??_C@_0N@MIBK@fold?4compact?$AA@ 1004e3c4     LexAIPI.obj
 0003:000003d4       ??_C@_0BC@BGFK@fold?4preprocessor?$AA@ 1004e3d4     LexAIPI.obj
 0003:000003e8       ??_C@_0N@LGLP@fold?4comment?$AA@ 1004e3e8     LexAIPI.obj
 0003:000003f8       ??_C@_03JFCF@?1?1?$CB?$AA@ 1004e3f8     LexAIPI.obj
 0003:000003fc       ??_C@_04EEID@?1?1?1?1?$AA@ 1004e3fc     LexAIPI.obj
 0003:00000404       ??_C@_03DOOP@?1?1?1?$AA@   1004e404     LexAIPI.obj
 0003:00000408       ??_C@_03NJCF@?1?$CK?$CB?$AA@ 1004e408     LexAIPI.obj
 0003:0000040c       ??_C@_03HCCE@?1?$CK?$CK?$AA@ 1004e40c     LexAIPI.obj
 0003:00000410       ??_C@_04GGNA@uuid?$AA@     1004e410     LexAIPI.obj
 0003:00000418       ??_C@_0EB@FKML@?4_abcdefghijklmnopqrstuvwxyzABCD@ 1004e418     LexAIPI.obj
 0003:0000045c       ??_C@_0DG@ILHA@_abcdefghijklmnopqrstuvwxyzABCDE@ 1004e45c     LexAIPI.obj
 0003:00000494       ??_C@_0CG@NLID@$?$EA?2?$CG?$DM?$DO?$CD?$HL?$HN?$FL?$FNabcdefghijklmnopqrstu@ 1004e494     LexAIPI.obj
 0003:000004bc       ??_C@_03DIML@?$CI?$DN?0?$AA@ 1004e4bc     LexAIPI.obj
 0003:000004c0       ??_C@_0BM@HPMK@styling?4within?4preprocessor?$AA@ 1004e4c0     LexAIPI.obj
 0003:000004dc       ??_C@_09JKON@knwnocase?$AA@ 1004e4dc     LexAIPI.obj
 0003:000004e8       ??_C@_0M@ICPE@AIPIbullant?$AA@ 1004e4e8     LexAIPIBullant.obj
 0003:000004f4       ??_C@_04FPF@fold?$AA@      1004e4f4     LexAIPIBullant.obj
 0003:000004fc       ??_C@_05NJDI@while?$AA@    1004e4fc     LexAIPIBullant.obj
 0003:00000504       ??_C@_05FPCC@until?$AA@    1004e504     LexAIPIBullant.obj
 0003:0000050c       ??_C@_04ELJL@trap?$AA@     1004e50c     LexAIPIBullant.obj
 0003:00000514       ??_C@_0M@HIHI@transaction?$AA@ 1004e514     LexAIPIBullant.obj
 0003:00000520       ??_C@_04LAJN@lock?$AA@     1004e520     LexAIPIBullant.obj
 0003:00000528       ??_C@_04DJDA@test?$AA@     1004e528     LexAIPIBullant.obj
 0003:00000530       ??_C@_05FLHP@debug?$AA@    1004e530     LexAIPIBullant.obj
 0003:00000538       ??_C@_05LGKP@class?$AA@    1004e538     LexAIPIBullant.obj
 0003:00000540       ??_C@_04NNBC@case?$AA@     1004e540     LexAIPIBullant.obj
 0003:00000548       ??_C@_06IM@method?$AA@     1004e548     LexAIPIBullant.obj
 0003:00000550       ??_C@_09LPHA@functions?$AA@ 1004e550     LexAPDL.obj
 0003:0000055c       ??_C@_09MJIH@arguments?$AA@ 1004e55c     LexAPDL.obj
 0003:00000568       ??_C@_0N@MFOC@starcommands?$AA@ 1004e568     LexAPDL.obj
 0003:00000578       ??_C@_0N@GCCP@slashommands?$AA@ 1004e578     LexAPDL.obj
 0003:00000588       ??_C@_08GGEJ@commands?$AA@ 1004e588     LexAPDL.obj
 0003:00000594       ??_C@_0L@HIPL@processors?$AA@ 1004e594     LexAPDL.obj
 0003:000005a0       ??_C@_04BBBJ@apdl?$AA@     1004e5a0     LexAPDL.obj
 0003:000005a8       ??_C@_0BG@JDAC@Extended?5instructions?$AA@ 1004e5a8     LexAsm.obj
 0003:000005c0       ??_C@_0BD@IHGJ@Directive?5operands?$AA@ 1004e5c0     LexAsm.obj
 0003:000005d4       ??_C@_0L@LPOK@Directives?$AA@ 1004e5d4     LexAsm.obj
 0003:000005e0       ??_C@_09JLNJ@Registers?$AA@ 1004e5e0     LexAsm.obj
 0003:000005ec       ??_C@_0BB@FKJD@FPU?5instructions?$AA@ 1004e5ec     LexAsm.obj
 0003:00000600       ??_C@_0BB@PMFL@CPU?5instructions?$AA@ 1004e600     LexAsm.obj
 0003:00000614       ??_C@_03BIJL@asm?$AA@      1004e614     LexAsm.obj
 0003:00000618       ??_C@_05FLLL@Types?$AA@    1004e618     LexAsn1.obj
 0003:00000620       ??_C@_0M@LIMC@Descriptors?$AA@ 1004e620     LexAsn1.obj
 0003:0000062c       ??_C@_0L@GIMA@Attributes?$AA@ 1004e62c     LexAsn1.obj
 0003:00000638       ??_C@_04CHOA@asn1?$AA@     1004e638     LexAsn1.obj
 0003:00000640       ??_C@_0M@GOMJ@?$CDautoit?5UDF?$AA@ 1004e640     LexAU3.obj
 0003:0000064c       ??_C@_0P@CJLD@?$CDautoit?5Expand?$AA@ 1004e64c     LexAU3.obj
 0003:0000065c       ??_C@_0BA@COOL@?$CDautoit?5Special?$AA@ 1004e65c     LexAU3.obj
 0003:0000066c       ??_C@_0BH@LALA@?$CDautoit?5Pre?9processors?$AA@ 1004e66c     LexAU3.obj
 0003:00000684       ??_C@_0BC@CEFM@?$CDautoit?5Sent?5keys?$AA@ 1004e684     LexAU3.obj
 0003:00000698       ??_C@_0P@JEFF@?$CDautoit?5macros?$AA@ 1004e698     LexAU3.obj
 0003:000006a8       ??_C@_0BC@EMGM@?$CDautoit?5functions?$AA@ 1004e6a8     LexAU3.obj
 0003:000006bc       ??_C@_0BB@FBLL@?$CDautoit?5keywords?$AA@ 1004e6bc     LexAU3.obj
 0003:000006d0       ??_C@_03MIBO@au3?$AA@      1004e6d0     LexAU3.obj
 0003:000006d4       ??_C@_0O@OIEF@?$CDcomments?9end?$AA@ 1004e6d4     LexAU3.obj
 0003:000006e4       ??_C@_03HAN@?$CDce?$AA@    1004e6e4     LexAU3.obj
 0003:000006e8       ??_C@_01PLJA@0?$AA@        1004e6e8     LexAU3.obj
 0003:000006ec       ??_C@_01NON@_?$AA@         1004e6ec     LexAU3.obj
 0003:000006f0       ??_C@_0BA@NNDE@?$CDcomments?9start?$AA@ 1004e6f0     LexAU3.obj
 0003:00000700       ??_C@_03FBAP@?$CDcs?$AA@   1004e700     LexAU3.obj
 0003:00000704       ??_C@_08HOOI@?$CDinclude?$AA@ 1004e704     LexAU3.obj
 0003:00000710       ??_C@_09JGHF@?$CDcomments?$AA@ 1004e710     LexAU3.obj
 0003:0000071c       ??_C@_06KGCE@toggle?$AA@   1004e71c     LexAU3.obj
 0003:00000724       ??_C@_03OJPB@off?$AA@      1004e724     LexAU3.obj
 0003:00000728       ??_C@_02PHBM@on?$AA@       1004e728     LexAU3.obj
 0003:0000072c       ??_C@_02HAO@up?$AA@        1004e72c     LexAU3.obj
 0003:00000730       ??_C@_04KKMF@down?$AA@     1004e730     LexAU3.obj
 0003:00000738       ??_C@_0L@DMLP@?$CDendregion?$AA@ 1004e738     LexAU3.obj
 0003:00000744       ??_C@_09MNGM@endswitch?$AA@ 1004e744     LexAU3.obj
 0003:00000750       ??_C@_09BLIB@endselect?$AA@ 1004e750     LexAU3.obj
 0003:0000075c       ??_C@_06FOBE@elseif?$AA@   1004e75c     LexAU3.obj
 0003:00000764       ??_C@_04IIAH@else?$AA@     1004e764     LexAU3.obj
 0003:0000076c       ??_C@_04GMEL@wend?$AA@     1004e76c     LexAU3.obj
 0003:00000774       ??_C@_07NKFA@endwith?$AA@  1004e774     LexAU3.obj
 0003:0000077c       ??_C@_04ICIO@next?$AA@     1004e77c     LexAU3.obj
 0003:00000784       ??_C@_05HNIL@endif?$AA@    1004e784     LexAU3.obj
 0003:0000078c       ??_C@_07KAP@endfunc?$AA@   1004e78c     LexAU3.obj
 0003:00000794       ??_C@_06OPGE@switch?$AA@   1004e794     LexAU3.obj
 0003:0000079c       ??_C@_06DJIJ@select?$AA@   1004e79c     LexAU3.obj
 0003:000007a4       ??_C@_07NHLC@?$CDregion?$AA@ 1004e7a4     LexAU3.obj
 0003:000007ac       ??_C@_04LIOI@with?$AA@     1004e7ac     LexAU3.obj
 0003:000007b4       ??_C@_04GILH@func?$AA@     1004e7b4     LexAU3.obj
 0003:000007bc       ??_C@_03ILIA@for?$AA@      1004e7bc     LexAU3.obj
 0003:000007c0       ??_C@_02NDCA@do?$AA@       1004e7c0     LexAU3.obj
 0003:000007c4       ??_C@_04GHJ@then?$AA@      1004e7c4     LexAU3.obj
 0003:000007cc       ??_C@_03CD@ave?$AA@        1004e7cc     LexAVE.obj
 0003:000007d0       ??_C@_04BELN@baan?$AA@     1004e7d0     LexBaan.obj
 0003:000007d8       ??_C@_08CHEN@dllusage?$AA@ 1004e7d8     LexBaan.obj
 0003:000007e4       ??_C@_0M@BBJP@enddllusage?$AA@ 1004e7e4     LexBaan.obj
 0003:000007f0       ??_C@_04KMDD@bash?$AA@     1004e7f0     LexBash.obj
 0003:000007f8       ??_C@_0CC@OKJG@rwxoRWXOezsfdlpSbctugkTBMACahGLN@ 1004e7f8     LexBash.obj
 0003:0000081c       ??_C@_0CA@NGMJ@FreeBasic?5PreProcessor?5Keywords?$AA@ 1004e81c     LexBasic.obj
 0003:0000083c       ??_C@_0BD@PEFM@FreeBasic?5Keywords?$AA@ 1004e83c     LexBasic.obj
 0003:00000850       ??_C@_0P@HFBE@user?5defined?52?$AA@ 1004e850     LexBasic.obj
 0003:00000860       ??_C@_0P@IKKN@user?5defined?51?$AA@ 1004e860     LexBasic.obj
 0003:00000870       ??_C@_0CA@NDD@PureBasic?5PreProcessor?5Keywords?$AA@ 1004e870     LexBasic.obj
 0003:00000890       ??_C@_0BD@OCKE@PureBasic?5Keywords?$AA@ 1004e890     LexBasic.obj
 0003:000008a4       ??_C@_05KBK@user3?$AA@     1004e8a4     LexBasic.obj
 0003:000008ac       ??_C@_05KAIN@user2?$AA@    1004e8ac     LexBasic.obj
 0003:000008b4       ??_C@_05FPDE@user1?$AA@    1004e8b4     LexBasic.obj
 0003:000008bc       ??_C@_0BE@HDJ@BlitzBasic?5Keywords?$AA@ 1004e8bc     LexBasic.obj
 0003:00000ad0       ??_C@_0L@KGBM@blitzbasic?$AA@ 1004ead0     LexBasic.obj
 0003:00000adc       ??_C@_08PEGF@end?5type?$AA@ 1004eadc     LexBasic.obj
 0003:00000ae8       ??_C@_0N@CDNF@end?5function?$AA@ 1004eae8     LexBasic.obj
 0003:00000af8       ??_C@_04PIKN@type?$AA@     1004eaf8     LexBasic.obj
 0003:00000b00       ??_C@_08JJOG@function?$AA@ 1004eb00     LexBasic.obj
 0003:00000b0c       ??_C@_09JFJJ@purebasic?$AA@ 1004eb0c     LexBasic.obj
 0003:00000b18       ??_C@_0N@IAEC@endstructure?$AA@ 1004eb18     LexBasic.obj
 0003:00000b28       ??_C@_0N@HEGI@endinterface?$AA@ 1004eb28     LexBasic.obj
 0003:00000b38       ??_C@_0P@INJE@endenumeration?$AA@ 1004eb38     LexBasic.obj
 0003:00000b48       ??_C@_0N@MNHF@endprocedure?$AA@ 1004eb48     LexBasic.obj
 0003:00000b58       ??_C@_09HDHE@structure?$AA@ 1004eb58     LexBasic.obj
 0003:00000b64       ??_C@_09IHFO@interface?$AA@ 1004eb64     LexBasic.obj
 0003:00000b70       ??_C@_0M@NIGK@enumeration?$AA@ 1004eb70     LexBasic.obj
 0003:00000b7c       ??_C@_09DOED@procedure?$AA@ 1004eb7c     LexBasic.obj
 0003:00000b88       ??_C@_09OENA@freebasic?$AA@ 1004eb88     LexBasic.obj
 0003:00000b94       ??_C@_07CDIE@end?5sub?$AA@ 1004eb94     LexBasic.obj
 0003:00000b9c       ??_C@_03OLHO@sub?$AA@      1004eb9c     LexBasic.obj
 0003:00000ba0       ??_C@_07HOLP@bullant?$AA@  1004eba0     LexBullant.obj
 0003:00000ba8       ??_C@_09CCGB@Keywords3?$AA@ 1004eba8     LexCaml.obj
 0003:00000bb4       ??_C@_09IIPG@Keywords2?$AA@ 1004ebb4     LexCaml.obj
 0003:00000bc0       ??_C@_05MPDD@?$CJ?$FN?$HN?$DL?0?$AA@ 1004ebc0     LexCaml.obj
 0003:00000bc8       ??_C@_0BD@OAHJ@?$CB$?$CF?$CG?$CK?$CL?9?4?1?3?$DM?$DN?$DO?$DP?$EA?$FO?$HM?$HO?$AA@ 1004ebc8     LexCaml.obj
 0003:00000bdc       ??_C@_09FLBA@?$CJ?$FN?$HN?$DL?0?8?$CC?$GA?$CD?$AA@ 1004ebdc     LexCaml.obj
 0003:00000be8       ??_C@_0BM@EEHL@?$CB?$DP?$HO?$DN?$DM?$DO?$EA?$FO?$HM?$CG?$CL?9?$CK?1$?$CF?$CI?$CJ?$FL?$FN?$HL?$HN?$DL?0?3?4?$CD?$AA@ 1004ebe8     LexCaml.obj
 0003:00000c04       ??_C@_06MDMG@bBoOxX?$AA@   1004ec04     LexCaml.obj
 0003:00000c0c       ??_C@_0BB@BHNC@lexer?4caml?4magic?$AA@ 1004ec0c     LexCaml.obj
 0003:00000c20       ??_C@_04ILDP@caml?$AA@     1004ec20     LexCaml.obj
 0003:00000c28       ??_C@_0CC@LEBD@Reserved?5Words?5?$CIProcedure?5Labels@ 1004ec28     LexCLW.obj
 0003:00000c4c       ??_C@_0BI@NHEB@Reserved?5Words?5?$CILabels?$CJ?$AA@ 1004ec4c     LexCLW.obj
 0003:00000c64       ??_C@_0BB@MIDP@Standard?5Equates?$AA@ 1004ec64     LexCLW.obj
 0003:00000c78       ??_C@_0BJ@CIBE@Structure?5and?5Data?5Types?$AA@ 1004ec78     LexCLW.obj
 0003:00000c94       ??_C@_0BE@PDGJ@Runtime?5Expressions?$AA@ 1004ec94     LexCLW.obj
 0003:00000ca8       ??_C@_0CC@FFLO@Built?9in?5Procedures?5and?5Function@ 1004eca8     LexCLW.obj
 0003:00000ccc       ??_C@_0BE@CHBA@Compiler?5Directives?$AA@ 1004eccc     LexCLW.obj
 0003:00000ce0       ??_C@_0BB@CMGE@Clarion?5Keywords?$AA@ 1004ece0     LexCLW.obj
 0003:00000cf4       ??_C@_07JNLH@clarion?$AA@  1004ecf4     LexCLW.obj
 0003:00000cfc       ??_C@_07ECA@DEKNPST?$AA@   1004ecfc     LexCLW.obj
 0003:00000d04       ??_C@_0P@KNNG@DEKNPSTdeknpst?$AA@ 1004ed04     LexCLW.obj
 0003:00000d14       ??_C@_03KOFL@BOH?$AA@      1004ed14     LexCLW.obj
 0003:00000d18       ??_C@_06DOOE@BOHboh?$AA@   1004ed18     LexCLW.obj
 0003:00000d20       ??_C@_06POCD@ABCDEF?$AA@   1004ed20     LexCLW.obj
 0003:00000d28       ??_C@_0N@JKNF@ABCDEFabcdef?$AA@ 1004ed28     LexCLW.obj
 0003:00000d38       ??_C@_0BP@JKBA@BOF?5EOF?5FUNCTION?5POINTER?5SHARE?$AA@ 1004ed38     LexCLW.obj
 0003:00000d58       ??_C@_0N@MENP@COMPILE?5OMIT?$AA@ 1004ed58     LexCLW.obj
 0003:00000d68       ??_C@_0BD@OHOM@PROCEDURE?5FUNCTION?$AA@ 1004ed68     LexCLW.obj
 0003:00000d7c       ??_C@_05LCLH@WHILE?$AA@    1004ed7c     LexCLW.obj
 0003:00000d84       ??_C@_05DEKN@UNTIL?$AA@    1004ed84     LexCLW.obj
 0003:00000d8c       ??_C@_03PIHE@END?$AA@      1004ed8c     LexCLW.obj
 0003:00000d90       ??_C@_06DJMI@WINDOW?$AA@   1004ed90     LexCLW.obj
 0003:00000d98       ??_C@_04CGLB@VIEW?$AA@     1004ed98     LexCLW.obj
 0003:00000da0       ??_C@_07JMMD@TOOLBAR?$AA@  1004eda0     LexCLW.obj
 0003:00000da8       ??_C@_03KAHL@TAB?$AA@      1004eda8     LexCLW.obj
 0003:00000dac       ??_C@_05EKNE@SHEET?$AA@    1004edac     LexCLW.obj
 0003:00000db4       ??_C@_06NBMA@REPORT?$AA@   1004edb4     LexCLW.obj
 0003:00000dbc       ??_C@_05KMHL@QUEUE?$AA@    1004edbc     LexCLW.obj
 0003:00000dc4       ??_C@_06IFCC@OPTION?$AA@   1004edc4     LexCLW.obj
 0003:00000dcc       ??_C@_03ELCO@OLE?$AA@      1004edcc     LexCLW.obj
 0003:00000dd0       ??_C@_07FDCG@MENUBAR?$AA@  1004edd0     LexCLW.obj
 0003:00000dd8       ??_C@_04DFJM@MENU?$AA@     1004edd8     LexCLW.obj
 0003:00000de0       ??_C@_06OPPA@HEADER?$AA@   1004ede0     LexCLW.obj
 0003:00000de8       ??_C@_05JGM@GROUP?$AA@     1004ede8     LexCLW.obj
 0003:00000df0       ??_C@_04DMPN@FORM?$AA@     1004edf0     LexCLW.obj
 0003:00000df8       ??_C@_06KKEH@FOOTER?$AA@   1004edf8     LexCLW.obj
 0003:00000e00       ??_C@_04CMDA@FILE?$AA@     1004ee00     LexCLW.obj
 0003:00000e08       ??_C@_06GEC@DETAIL?$AA@    1004ee08     LexCLW.obj
 0003:00000e10       ??_C@_05NNCA@CLASS?$AA@    1004ee10     LexCLW.obj
 0003:00000e18       ??_C@_0M@LKKI@APPLICATION?$AA@ 1004ee18     LexCLW.obj
 0003:00000e24       ??_C@_06ECGH@RECORD?$AA@   1004ee24     LexCLW.obj
 0003:00000e2c       ??_C@_06PBLN@MODULE?$AA@   1004ee2c     LexCLW.obj
 0003:00000e34       ??_C@_04DCDH@LOOP?$AA@     1004ee34     LexCLW.obj
 0003:00000e3c       ??_C@_04JIJO@JOIN?$AA@     1004ee3c     LexCLW.obj
 0003:00000e44       ??_C@_09MGLG@INTERFACE?$AA@ 1004ee44     LexCLW.obj
 0003:00000e50       ??_C@_07MGDP@ITEMIZE?$AA@  1004ee50     LexCLW.obj
 0003:00000e58       ??_C@_02FDOJ@IF?$AA@       1004ee58     LexCLW.obj
 0003:00000e5c       ??_C@_07DNBH@EXECUTE?$AA@  1004ee5c     LexCLW.obj
 0003:00000e64       ??_C@_04LCDH@CASE?$AA@     1004ee64     LexCLW.obj
 0003:00000e6c       ??_C@_05JBBL@BEGIN?$AA@    1004ee6c     LexCLW.obj
 0003:00000e74       ??_C@_06NGOH@ACCEPT?$AA@   1004ee74     LexCLW.obj
 0003:00000e7c       ??_C@_03LPOM@MAP?$AA@      1004ee7c     LexCLW.obj
 0003:00000e80       ??_C@_09HPKL@PROCEDURE?$AA@ 1004ee80     LexCLW.obj
 0003:00000e8c       ??_C@_0O@IMLA@clarionnocase?$AA@ 1004ee8c     LexCLW.obj
 0003:00000e9c       ??_C@_0L@LFGH@Parameters?$AA@ 1004ee9c     LexConf.obj
 0003:00000ea8       ??_C@_04MNJE@conf?$AA@     1004eea8     LexConf.obj
 0003:00000eb0       ??_C@_03HKEK@cpp?$AA@      1004eeb0     LexCPP.obj
 0003:00000eb4       ??_C@_0BI@NIAD@lexer?4cpp?4allow?4dollars?$AA@ 1004eeb4     LexCPP.obj
 0003:00000ecc       ??_C@_09DCDO@cppnocase?$AA@ 1004eecc     LexCPP.obj
 0003:00000ed8       ??_C@_09KNDL@Modifiers?$AA@ 1004eed8     LexCrontab.obj
 0003:00000ee4       ??_C@_0BD@IGHE@nnCrontab?5keywords?$AA@ 1004eee4     LexCrontab.obj
 0003:00000ef8       ??_C@_0CB@EJBD@Section?5keywords?5and?5Forth?5words@ 1004eef8     LexCrontab.obj
 0003:00000f1c       ??_C@_09BALP@nncrontab?$AA@ 1004ef1c     LexCrontab.obj
 0003:00000f28       ??_C@_0O@KLCI@User?5keywords?$AA@ 1004ef28     LexCsound.obj
 0003:00000f38       ??_C@_0BC@DHEM@Header?5Statements?$AA@ 1004ef38     LexCsound.obj
 0003:00000f4c       ??_C@_07EAGB@Opcodes?$AA@  1004ef4c     LexCsound.obj
 0003:00000f54       ??_C@_06LPLJ@csound?$AA@   1004ef54     LexCsound.obj
 0003:00000f5c       ??_C@_05CJDD@endin?$AA@    1004ef5c     LexCsound.obj
 0003:00000f64       ??_C@_05PDOO@instr?$AA@    1004ef64     LexCsound.obj
 0003:00000f6c       ??_C@_0O@JEKP@CSS2?5Keywords?$AA@ 1004ef6c     LexCSS.obj
 0003:00000f7c       ??_C@_0P@PJLG@Pseudo?5classes?$AA@ 1004ef7c     LexCSS.obj
 0003:00000f8c       ??_C@_0O@EOJ@CSS1?5Keywords?$AA@ 1004ef8c     LexCSS.obj
 0003:00000f9c       ??_C@_03LOAM@css?$AA@      1004ef9c     LexCSS.obj
 0003:00000fa0       ??_C@_09IGAM@important?$AA@ 1004efa0     LexCSS.obj
 0003:00000fac       ??_C@_06IDMM@eiffel?$AA@   1004efac     LexEiffel.obj
 0003:00000fb4       ??_C@_08IMEP@eiffelkw?$AA@ 1004efb4     LexEiffel.obj
 0003:00000fc0       ??_C@_04CGLH@once?$AA@     1004efc0     LexEiffel.obj
 0003:00000fc8       ??_C@_07IDN@inspect?$AA@   1004efc8     LexEiffel.obj
 0003:00000fd0       ??_C@_04GLLG@from?$AA@     1004efd0     LexEiffel.obj
 0003:00000fd8       ??_C@_08IMKA@deferred?$AA@ 1004efd8     LexEiffel.obj
 0003:00000fe4       ??_C@_05PMNM@check?$AA@    1004efe4     LexEiffel.obj
 0003:00000fec       ??_C@_06JLCD@erlang?$AA@   1004efec     LexErlang.obj
 0003:00000ff4       ??_C@_07OPFK@receive?$AA@  1004eff4     LexErlang.obj
 0003:00000ffc       ??_C@_05PBDF@query?$AA@    1004effc     LexErlang.obj
 0003:00001004       ??_C@_03COLM@fun?$AA@      1004f004     LexErlang.obj
 0003:00001008       ??_C@_0CE@BOJD@Extended?5and?5user?5defined?5functi@ 1004f008     LexEScript.obj
 0003:0000102c       ??_C@_0BE@LILG@Intrinsic?5functions?$AA@ 1004f02c     LexEScript.obj
 0003:00001040       ??_C@_07DDKN@escript?$AA@  1004f040     LexEScript.obj
 0003:00001048       ??_C@_0BH@DNGB@escript?4case?4sensitive?$AA@ 1004f048     LexEScript.obj
 0003:00001060       ??_C@_07LPKK@endcase?$AA@  1004f060     LexEScript.obj
 0003:00001068       ??_C@_08NBFK@endwhile?$AA@ 1004f068     LexEScript.obj
 0003:00001074       ??_C@_0M@KPDE@endfunction?$AA@ 1004f074     LexEScript.obj
 0003:00001080       ??_C@_0L@BIK@endprogram?$AA@ 1004f080     LexEScript.obj
 0003:0000108c       ??_C@_0L@KICK@endforeach?$AA@ 1004f08c     LexEScript.obj
 0003:00001098       ??_C@_06DDCJ@endfor?$AA@   1004f098     LexEScript.obj
 0003:000010a0       ??_C@_07NDKI@program?$AA@  1004f0a0     LexEScript.obj
 0003:000010a8       ??_C@_07HKAI@foreach?$AA@  1004f0a8     LexEScript.obj
 0003:000010b0       ??_C@_08DCJN@flagship?$AA@ 1004f0b0     LexFlagship.obj
 0003:000010bc       ??_C@_0BL@EJGF@string?5definition?5keywords?$AA@ 1004f0bc     LexForth.obj
 0003:000010d8       ??_C@_0BM@PFFN@prewords?5with?5two?5arguments?$AA@ 1004f0d8     LexForth.obj
 0003:000010f4       ??_C@_0BL@MEJN@prewords?5with?5one?5argument?$AA@ 1004f0f4     LexForth.obj
 0003:00001110       ??_C@_0BB@KALK@definition?5words?$AA@ 1004f110     LexForth.obj
 0003:00001124       ??_C@_08ENPF@keywords?$AA@ 1004f124     LexForth.obj
 0003:00001130       ??_C@_0BB@MKBE@control?5keywords?$AA@ 1004f130     LexForth.obj
 0003:00001144       ??_C@_02LFBD@0x?$AA@       1004f144     LexForth.obj
 0003:00001148       ??_C@_05ENJM@forth?$AA@    1004f148     LexForth.obj
 0003:00001150       ??_C@_01PFFB@?$HL?$AA@     1004f150     LexForth.obj
 0003:00001154       ??_C@_01KHLB@?$FL?$AA@     1004f154     LexForth.obj
 0003:00001158       ??_C@_01GFI@?$CI?$AA@      1004f158     LexForth.obj
 0003:0000115c       ??_C@_01PCFE@?2?$AA@       1004f15c     LexForth.obj
 0003:00001164       ??_C@_07PAN@fortran?$AA@   1004f164     LexFortran.obj
 0003:0000116c       ??_C@_05KJNF@where?$AA@    1004f16c     LexFortran.obj
 0003:00001174       ??_C@_06CAAF@forall?$AA@   1004f174     LexFortran.obj
 0003:0000117c       ??_C@_08KBLH@endwhere?$AA@ 1004f17c     LexFortran.obj
 0003:00001188       ??_C@_07JKBF@endtype?$AA@  1004f188     LexFortran.obj
 0003:00001190       ??_C@_0O@DEJL@endsubroutine?$AA@ 1004f190     LexFortran.obj
 0003:000011a0       ??_C@_09MDO@endmodule?$AA@ 1004f1a0     LexFortran.obj
 0003:000011ac       ??_C@_09CAN@endforall?$AA@ 1004f1ac     LexFortran.obj
 0003:000011b8       ??_C@_07GNNF@endenum?$AA@  1004f1b8     LexFortran.obj
 0003:000011c0       ??_C@_05HKPA@enddo?$AA@    1004f1c0     LexFortran.obj
 0003:000011c8       ??_C@_0N@GLHL@endblockdata?$AA@ 1004f1c8     LexFortran.obj
 0003:000011d8       ??_C@_08PFEL@endblock?$AA@ 1004f1d8     LexFortran.obj
 0003:000011e4       ??_C@_0N@PLCL@endassociate?$AA@ 1004f1e4     LexFortran.obj
 0003:000011f4       ??_C@_0L@MKGI@subroutine?$AA@ 1004f1f4     LexFortran.obj
 0003:00001200       ??_C@_06CODG@module?$AA@   1004f200     LexFortran.obj
 0003:00001208       ??_C@_04PGN@enum?$AA@      1004f208     LexFortran.obj
 0003:00001210       ??_C@_09JIEN@blockdata?$AA@ 1004f210     LexFortran.obj
 0003:0000121c       ??_C@_05PNCJ@block?$AA@    1004f21c     LexFortran.obj
 0003:00001224       ??_C@_09IBN@associate?$AA@ 1004f224     LexFortran.obj
 0003:00001230       ??_C@_03FLND@f77?$AA@      1004f230     LexFortran.obj
 0003:00001234       ??_C@_08GDJL@Commands?$AA@ 1004f234     LexGui4Cli.obj
 0003:00001240       ??_C@_07FNBF@Control?$AA@  1004f240     LexGui4Cli.obj
 0003:00001248       ??_C@_06HPCA@Events?$AA@   1004f248     LexGui4Cli.obj
 0003:00001250       ??_C@_07DHMI@Globals?$AA@  1004f250     LexGui4Cli.obj
 0003:00001258       ??_C@_07JFID@gui4cli?$AA@  1004f258     LexGui4Cli.obj
 0003:00001260       ??_C@_07FKEH@haskell?$AA@  1004f260     LexHaskell.obj
 0003:00001268       ??_C@_02CKJF@?9?9?$AA@     1004f268     LexHaskell.obj
 0003:0000126c       ??_C@_02CGCF@?9?$HN?$AA@   1004f26c     LexHaskell.obj
 0003:00001270       ??_C@_02JNGG@?$HL?9?$AA@   1004f270     LexHaskell.obj
 0003:00001274       ??_C@_06EGIC@import?$AA@   1004f274     LexHaskell.obj
 0003:0000127c       ??_C@_08IHDL@instance?$AA@ 1004f27c     LexHaskell.obj
 0003:00001288       ??_C@_04OMKF@data?$AA@     1004f288     LexHaskell.obj
 0003:00001290       ??_C@_02MILE@as?$AA@       1004f290     LexHaskell.obj
 0003:00001294       ??_C@_09EBIG@qualified?$AA@ 1004f294     LexHaskell.obj
 0003:000012a0       ??_C@_0BG@PIJG@SGML?5and?5DTD?5keywords?$AA@ 1004f2a0     LexHTML.obj
 0003:000012b8       ??_C@_0N@FLMD@PHP?5keywords?$AA@ 1004f2b8     LexHTML.obj
 0003:000012c8       ??_C@_0BA@NHMO@Python?5keywords?$AA@ 1004f2c8     LexHTML.obj
 0003:000012d8       ??_C@_0BC@OIIN@VBScript?5keywords?$AA@ 1004f2d8     LexHTML.obj
 0003:000012ec       ??_C@_0BE@GJCH@JavaScript?5keywords?$AA@ 1004f2ec     LexHTML.obj
 0003:00001300       ??_C@_0BN@CGFA@HTML?5elements?5and?5attributes?$AA@ 1004f300     LexHTML.obj
 0003:00001320       ??_C@_09DFFK@hypertext?$AA@ 1004f320     LexHTML.obj
 0003:0000132c       ??_C@_0BA@NODE@?4xXabcdefABCDEF?$AA@ 1004f32c     LexHTML.obj
 0003:0000133c       ??_C@_03OOCB@?$DM?$DM?$DM?$AA@ 1004f33c     LexHTML.obj
 0003:00001340       ??_C@_01HMO@?$CC?$AA@      1004f340     LexHTML.obj
 0003:00001344       ??_C@_06NALC@script?$AA@   1004f344     LexHTML.obj
 0003:0000134c       ??_C@_0BJ@LOLE@html?4tags?4case?4sensitive?$AA@ 1004f34c     LexHTML.obj
 0003:00001368       ??_C@_0BH@DPCI@fold?4html?4preprocessor?$AA@ 1004f368     LexHTML.obj
 0003:00001380       ??_C@_09OCPO@fold?4html?$AA@ 1004f380     LexHTML.obj
 0003:0000138c       ??_C@_0BF@HGA@asp?4default?4language?$AA@ 1004f38c     LexHTML.obj
 0003:000013a4       ??_C@_03PJMH@xml?$AA@      1004f3a4     LexHTML.obj
 0003:000013a8       ??_C@_03HCOG@php?$AA@      1004f3a8     LexHTML.obj
 0003:000013ac       ??_C@_04MBKL@jscr?$AA@     1004f3ac     LexHTML.obj
 0003:000013b4       ??_C@_05FFNN@javas?$AA@    1004f3b4     LexHTML.obj
 0003:000013bc       ??_C@_04GDDM@pyth?$AA@     1004f3bc     LexHTML.obj
 0003:000013c4       ??_C@_03PJCJ@vbs?$AA@      1004f3c4     LexHTML.obj
 0003:000013c8       ??_C@_03CALM@src?$AA@      1004f3c8     LexHTML.obj
 0003:000013cc       ??_C@_0CA@NDKF@meta?5link?5img?5area?5br?5hr?5input?5?$AA@ 1004f3cc     LexHTML.obj
 0003:000013ec       ??_C@_03NCJM@rem?$AA@      1004f3ec     LexHTML.obj
 0003:000013f0       ??_C@_03LEIA@def?$AA@      1004f3f0     LexHTML.obj
 0003:000013f4       ??_C@_07JCPK@?$FLCDATA?$FL?$AA@ 1004f3f4     LexHTML.obj
 0003:000013fc       ??_C@_03OFJI@asp?$AA@      1004f3fc     LexHTML.obj
 0003:00001400       ??_C@_04HKON@?$DM?$CB?9?9?$AA@ 1004f400     LexHTML.obj
 0003:00001408       ??_C@_03LEHA@?9?9?$DO?$AA@ 1004f408     LexHTML.obj
 0003:0000140c       ??_C@_05NKOL@?$DM?$DPphp?$AA@ 1004f40c     LexHTML.obj
 0003:00001414       ??_C@_09POLL@phpscript?$AA@ 1004f414     LexHTML.obj
 0003:00001420       ??_C@_0BG@BGJ@User?5defined?5keywords?$AA@ 1004f420     LexInno.obj
 0003:00001438       ??_C@_0BA@ILOD@Pascal?5keywords?$AA@ 1004f438     LexInno.obj
 0003:00001448       ??_C@_0BI@IDAG@Preprocessor?5directives?$AA@ 1004f448     LexInno.obj
 0003:00001460       ??_C@_08FLOI@Sections?$AA@ 1004f460     LexInno.obj
 0003:0000146c       ??_C@_04BJJ@inno?$AA@      1004f46c     LexInno.obj
 0003:00001474       ??_C@_03HHBA@kix?$AA@      1004f474     LexKix.obj
 0003:00001478       ??_C@_0CA@LONO@Functions?5and?5special?5operators?$AA@ 1004f478     LexLisp.obj
 0003:00001498       ??_C@_04DEDC@lisp?$AA@     1004f498     LexLisp.obj
 0003:000014a0       ??_C@_0BE@LGDE@Predefined?5keywords?$AA@ 1004f4a0     LexLout.obj
 0003:000014b4       ??_C@_0BG@GJIK@Predefined?5delimiters?$AA@ 1004f4b4     LexLout.obj
 0003:000014cc       ??_C@_0BH@OLEI@Predefined?5identifiers?$AA@ 1004f4cc     LexLout.obj
 0003:000014e4       ??_C@_04FOG@lout?$AA@      1004f4e4     LexLout.obj
 0003:000014ec       ??_C@_04CLED@?$EAEnd?$AA@  1004f4ec     LexLout.obj
 0003:000014f4       ??_C@_06JGDH@?$EABegin?$AA@ 1004f4f4     LexLout.obj
 0003:000014fc       ??_C@_05FPPP@user4?$AA@    1004f4fc     LexLua.obj
 0003:00001504       ??_C@_0CG@LEIP@?$CIcoroutines?$CJ?0?5I?1O?5?$CG?5system?5facil@ 1004f504     LexLua.obj
 0003:0000152c       ??_C@_0CB@BOME@String?0?5?$CItable?$CJ?5?$CG?5math?5functions@ 1004f52c     LexLua.obj
 0003:00001550       ??_C@_0BA@EPDB@Basic?5functions?$AA@ 1004f550     LexLua.obj
 0003:00001560       ??_C@_03BLHJ@lua?$AA@      1004f560     LexLua.obj
 0003:00001564       ??_C@_03EDJL@?9?9?$FL?$AA@ 1004f564     LexLua.obj
 0003:00001568       ??_C@_06GLIF@repeat?$AA@   1004f568     LexLua.obj
 0003:00001570       ??_C@_06PFJK@matlab?$AA@   1004f570     LexMatlab.obj
 0003:00001578       ??_C@_06EKHA@octave?$AA@   1004f578     LexMatlab.obj
 0003:00001580       ??_C@_07GCOJ@MetaFun?$AA@  1004f580     LexMetapost.obj
 0003:00001588       ??_C@_08IOKM@MetaPost?$AA@ 1004f588     LexMetapost.obj
 0003:00001594       ??_C@_08CBDM@metapost?$AA@ 1004f594     LexMetapost.obj
 0003:000015a0       ??_C@_04NJIN@etex?$AA@     1004f5a0     LexMetapost.obj
 0003:000015a8       ??_C@_0M@KONI@verbatimtex?$AA@ 1004f5a8     LexMetapost.obj
 0003:000015b4       ??_C@_04CDDD@btex?$AA@     1004f5b4     LexMetapost.obj
 0003:000015bc       ??_C@_0CB@BHAK@lexer?4metapost?4interface?4default@ 1004f5bc     LexMetapost.obj
 0003:000015e0       ??_C@_0BP@LLOE@lexer?4metapost?4comment?4process?$AA@ 1004f5e0     LexMetapost.obj
 0003:00001600       ??_C@_0L@HKIE@?$CFD?5?2module?$AA@ 1004f600     LexMetapost.obj
 0003:0000160c       ??_C@_0BC@BNJJ@interface?$DNmetafun?$AA@ 1004f60c     LexMetapost.obj
 0003:00001620       ??_C@_0N@JALM@interface?$DNmp?$AA@ 1004f620     LexMetapost.obj
 0003:00001630       ??_C@_0BD@LND@interface?$DNmetapost?$AA@ 1004f630     LexMetapost.obj
 0003:00001644       ??_C@_0P@NFDB@interface?$DNnone?$AA@ 1004f644     LexMetapost.obj
 0003:00001654       ??_C@_0BD@KH@Predefined?5Symbols?$AA@ 1004f654     LexMMIXAL.obj
 0003:00001668       ??_C@_0BB@IPIH@Special?5Register?$AA@ 1004f668     LexMMIXAL.obj
 0003:0000167c       ??_C@_0BA@KONI@Operation?5Codes?$AA@ 1004f67c     LexMMIXAL.obj
 0003:0000168c       ??_C@_06HJHE@mmixal?$AA@   1004f68c     LexMMIXAL.obj
 0003:00001694       ??_C@_03EAGK@lot?$AA@      1004f694     LexMPT.obj
 0003:00001698       ??_C@_07OOJD@ABORTED?$AA@  1004f698     LexMPT.obj
 0003:000016a0       ??_C@_06FDID@FAILED?$AA@   1004f6a0     LexMPT.obj
 0003:000016a8       ??_C@_06EOOK@PASSED?$AA@   1004f6a8     LexMPT.obj
 0003:000016b0       ??_C@_09OOEA@Operators?$AA@ 1004f6b0     LexMSSQL.obj
 0003:000016bc       ??_C@_0BJ@GGAH@System?5Stored?5Procedures?$AA@ 1004f6bc     LexMSSQL.obj
 0003:000016d8       ??_C@_09PGHF@Functions?$AA@ 1004f6d8     LexMSSQL.obj
 0003:000016e4       ??_C@_0BB@GGF@Global?5variables?$AA@ 1004f6e4     LexMSSQL.obj
 0003:000016f8       ??_C@_0O@KKJI@System?5tables?$AA@ 1004f6f8     LexMSSQL.obj
 0003:00001708       ??_C@_0L@MMAP@Data?5Types?$AA@ 1004f708     LexMSSQL.obj
 0003:00001714       ??_C@_0L@CAOB@Statements?$AA@ 1004f714     LexMSSQL.obj
 0003:00001720       ??_C@_05PCGK@mssql?$AA@    1004f720     LexMSSQL.obj
 0003:00001728       ??_C@_05PKJE@begin?$AA@    1004f728     LexMSSQL.obj
 0003:00001730       ??_C@_0M@MKKB@UserDefined?$AA@ 1004f730     LexNsis.obj
 0003:0000173c       ??_C@_06HLO@Lables?$AA@    1004f73c     LexNsis.obj
 0003:00001744       ??_C@_09MOFH@Variables?$AA@ 1004f744     LexNsis.obj
 0003:00001750       ??_C@_04GGHF@nsis?$AA@     1004f750     LexNsis.obj
 0003:00001758       ??_C@_0O@GKGK@nsis?4uservars?$AA@ 1004f758     LexNsis.obj
 0003:00001768       ??_C@_0M@NCDA@FunctionEnd?$AA@ 1004f768     LexNsis.obj
 0003:00001774       ??_C@_08JMDE@Function?$AA@ 1004f774     LexNsis.obj
 0003:00001780       ??_C@_09IGJN@PageExEnd?$AA@ 1004f780     LexNsis.obj
 0003:0000178c       ??_C@_06KKNH@PageEx?$AA@   1004f78c     LexNsis.obj
 0003:00001794       ??_C@_0O@NIKC@SubSectionEnd?$AA@ 1004f794     LexNsis.obj
 0003:000017a4       ??_C@_0L@DHGA@SubSection?$AA@ 1004f7a4     LexNsis.obj
 0003:000017b0       ??_C@_0L@ICLN@SectionEnd?$AA@ 1004f7b0     LexNsis.obj
 0003:000017bc       ??_C@_07BFO@Section?$AA@   1004f7bc     LexNsis.obj
 0003:000017c4       ??_C@_0BA@FCAE@SectionGroupEnd?$AA@ 1004f7c4     LexNsis.obj
 0003:000017d4       ??_C@_0N@GJIM@SectionGroup?$AA@ 1004f7d4     LexNsis.obj
 0003:000017e4       ??_C@_05CMII@?$CBelse?$AA@ 1004f7e4     LexNsis.obj
 0003:000017ec       ??_C@_06FMCP@?$CBendif?$AA@ 1004f7ec     LexNsis.obj
 0003:000017f4       ??_C@_07GKJH@?$CBifndef?$AA@ 1004f7f4     LexNsis.obj
 0003:000017fc       ??_C@_06BIPO@?$CBifdef?$AA@ 1004f7fc     LexNsis.obj
 0003:00001804       ??_C@_09MLGF@?$CBmacroend?$AA@ 1004f804     LexNsis.obj
 0003:00001810       ??_C@_06CJGH@?$CBmacro?$AA@ 1004f810     LexNsis.obj
 0003:00001818       ??_C@_0BA@OBNL@nsis?4ignorecase?$AA@ 1004f818     LexNsis.obj
 0003:00001828       ??_C@_0BB@OFFH@nsis?4foldutilcmd?$AA@ 1004f828     LexNsis.obj
 0003:0000183c       ??_C@_05GJKC@Sorts?$AA@    1004f83c     LexOpal.obj
 0003:00001844       ??_C@_04KIGF@opal?$AA@     1004f844     LexOpal.obj
 0003:0000184c       ??_C@_05NAGO@false?$AA@    1004f84c     LexOpal.obj
 0003:00001854       ??_C@_04NCCD@true?$AA@     1004f854     LexOpal.obj
 0003:0000185c       ??_C@_0BC@OICP@External?5Commands?$AA@ 1004f85c     LexOthers.obj
 0003:00001870       ??_C@_0BC@EBAD@Internal?5Commands?$AA@ 1004f870     LexOthers.obj
 0003:00001884       ??_C@_05NPPO@batch?$AA@    1004f884     LexOthers.obj
 0003:0000188c       ??_C@_05IIAE@start?$AA@    1004f88c     LexOthers.obj
 0003:00001894       ??_C@_06PGOP@choice?$AA@   1004f894     LexOthers.obj
 0003:0000189c       ??_C@_02DDJB@lh?$AA@       1004f89c     LexOthers.obj
 0003:000018a0       ??_C@_08NFH@loadhigh?$AA@  1004f8a0     LexOthers.obj
 0003:000018ac       ??_C@_04JNJF@call?$AA@     1004f8ac     LexOthers.obj
 0003:000018b4       ??_C@_05HDEJ@exist?$AA@    1004f8b4     LexOthers.obj
 0003:000018bc       ??_C@_0L@EKNE@errorlevel?$AA@ 1004f8bc     LexOthers.obj
 0003:000018c8       ??_C@_03NHNF@set?$AA@      1004f8c8     LexOthers.obj
 0003:000018cc       ??_C@_06ELND@prompt?$AA@   1004f8cc     LexOthers.obj
 0003:000018d4       ??_C@_04FEFL@goto?$AA@     1004f8d4     LexOthers.obj
 0003:000018dc       ??_C@_04EDEH@echo?$AA@     1004f8dc     LexOthers.obj
 0003:000018e4       ??_C@_04GOAJ@diff?$AA@     1004f8e4     LexOthers.obj
 0003:000018ec       ??_C@_02DJBK@?$DP?5?$AA@   1004f8ec     LexOthers.obj
 0003:000018f0       ??_C@_03GIGI@?$CK?$CK?$CK?$AA@ 1004f8f0     LexOthers.obj
 0003:000018f4       ??_C@_04GFOD@?$DN?$DN?$DN?$DN?$AA@ 1004f8f4     LexOthers.obj
 0003:000018fc       ??_C@_04MCGG@?$CL?$CL?$CL?5?$AA@ 1004f8fc     LexOthers.obj
 0003:00001904       ??_C@_04IGAC@?9?9?9?5?$AA@ 1004f904     LexOthers.obj
 0003:0000190c       ??_C@_05NIO@diff?5?$AA@    1004f90c     LexOthers.obj
 0003:00001914       ??_C@_05LDPF@props?$AA@    1004f914     LexOthers.obj
 0003:0000191c       ??_C@_08NPGJ@makefile?$AA@ 1004f91c     LexOthers.obj
 0003:00001928       ??_C@_09IHOL@errorlist?$AA@ 1004f928     LexOthers.obj
 0003:00001934       ??_C@_06BFAP@remark?$AA@   1004f934     LexOthers.obj
 0003:0000193c       ??_C@_04FKAP@note?$AA@     1004f93c     LexOthers.obj
 0003:00001944       ??_C@_0N@CCBK@catastrophic?$AA@ 1004f944     LexOthers.obj
 0003:00001954       ??_C@_05NIGC@fatal?$AA@    1004f954     LexOthers.obj
 0003:0000195c       ??_C@_07EANM@warning?$AA@  1004f95c     LexOthers.obj
 0003:00001964       ??_C@_05COLM@error?$AA@    1004f964     LexOthers.obj
 0003:0000196c       ??_C@_06GKPH@?4java?3?$AA@ 1004f96c     LexOthers.obj
 0003:00001974       ??_C@_04IHLP@?7at?5?$AA@   1004f974     LexOthers.obj
 0003:0000197c       ??_C@_08KNFL@?5column?5?$AA@ 1004f97c     LexOthers.obj
 0003:00001988       ??_C@_05KHOO@line?5?$AA@   1004f988     LexOthers.obj
 0003:00001990       ??_C@_07OKOI@?0?5file?5?$AA@ 1004f990     LexOthers.obj
 0003:00001998       ??_C@_05KDEE@Line?5?$AA@   1004f998     LexOthers.obj
 0003:000019a0       ??_C@_06MPKJ@?3line?5?$AA@ 1004f9a0     LexOthers.obj
 0003:000019a8       ??_C@_06JCJB@?5?5?5at?5?$AA@ 1004f9a8     LexOthers.obj
 0003:000019b0       ??_C@_06BDOK@?5line?5?$AA@ 1004f9b0     LexOthers.obj
 0003:000019b8       ??_C@_04CCDP@?5at?5?$AA@   1004f9b8     LexOthers.obj
 0003:000019c0       ??_C@_05ECKD@file?5?$AA@   1004f9c0     LexOthers.obj
 0003:000019c8       ??_C@_08HBGD@at?5line?5?$AA@ 1004f9c8     LexOthers.obj
 0003:000019d4       ??_C@_04JCEP@?$CJ?5?3?5?$AA@ 1004f9d4     LexOthers.obj
 0003:000019dc       ??_C@_05KCHK@?5at?5?$CI?$AA@ 1004f9dc     LexOthers.obj
 0003:000019e4       ??_C@_08EPHC@Warning?5?$AA@ 1004f9e4     LexOthers.obj
 0003:000019f0       ??_C@_06IGMK@Error?5?$AA@  1004f9f0     LexOthers.obj
 0003:000019f8       ??_C@_09JCJ@?5on?5line?5?$AA@ 1004f9f8     LexOthers.obj
 0003:00001a04       ??_C@_04EACC@?5in?5?$AA@   1004fa04     LexOthers.obj
 0003:00001a0c       ??_C@_07PKF@?0?5line?5?$AA@ 1004fa0c     LexOthers.obj
 0003:00001a14       ??_C@_06PHII@File?5?$CC?$AA@ 1004fa14     LexOthers.obj
 0003:00001a1c       ??_C@_08FCEH@fortcom?3?$AA@ 1004fa1c     LexOthers.obj
 0003:00001a28       ??_C@_05NEMO@cf90?9?$AA@   1004fa28     LexOthers.obj
 0003:00001a30       ??_C@_05MAIE@latex?$AA@    1004fa30     LexOthers.obj
 0003:00001a38       ??_C@_04GOCP@null?$AA@     1004fa38     LexOthers.obj
 0003:00001a40       ??_C@_0L@LEAB@Classwords?$AA@ 1004fa40     LexPascal.obj
 0003:00001a4c       ??_C@_06LOBJ@pascal?$AA@   1004fa4c     LexPascal.obj
 0003:00001a54       ??_C@_03DGDL@try?$AA@      1004fa54     LexPascal.obj
 0003:00001a58       ??_C@_06JNOM@record?$AA@   1004fa58     LexPascal.obj
 0003:00001a60       ??_C@_06CHBM@object?$AA@   1004fa60     LexPascal.obj
 0003:00001a68       ??_C@_0L@BKNA@powerbasic?$AA@ 1004fa68     LexPB.obj
 0003:00001a74       ??_C@_0BC@NBDK@CALLBACK?5FUNCTION?$AA@ 1004fa74     LexPB.obj
 0003:00001a88       ??_C@_08JBAL@FUNCTION?$AA@ 1004fa88     LexPB.obj
 0003:00001a94       ??_C@_05GDEM@MACRO?$AA@    1004fa94     LexPB.obj
 0003:00001a9c       ??_C@_0L@KLHO@STATIC?5SUB?$AA@ 1004fa9c     LexPB.obj
 0003:00001aa8       ??_C@_0BA@OJJE@STATIC?5FUNCTION?$AA@ 1004faa8     LexPB.obj
 0003:00001ab8       ??_C@_04EHBK@perl?$AA@     1004fab8     LexPerl.obj
 0003:00001ac0       ??_C@_0BC@HDM@?$FO?1?$HM?0?2?$CC?$DL?$CD?$CF?$FO?3?$DP?$DM?$DO?$CJ?$FL?$FN?$AA@ 1004fac0     LexPerl.obj
 0003:00001ad4       ??_C@_07NKBA@__END__?$AA@  1004fad4     LexPerl.obj
 0003:00001adc       ??_C@_08MMO@__DATA__?$AA@  1004fadc     LexPerl.obj
 0003:00001ae8       ??_C@_02HADK@su?$AA@       1004fae8     LexPerl.obj
 0003:00001aec       ??_C@_04PJPP@?$DNcut?$AA@  1004faec     LexPerl.obj
 0003:00001af4       ??_C@_0BM@COBA@rwxoRWXOezsfdlpSbctugkTBMAC?$AA@ 1004faf4     LexPerl.obj
 0003:00001b10       ??_C@_07PNDL@package?$AA@  1004fb10     LexPerl.obj
 0003:00001b18       ??_C@_05BKCA@?$DNhead?$AA@ 1004fb18     LexPerl.obj
 0003:00001b20       ??_C@_0BC@KDLE@fold?4perl?4package?$AA@ 1004fb20     LexPerl.obj
 0003:00001b34       ??_C@_0O@NENJ@fold?4perl?4pod?$AA@ 1004fb34     LexPerl.obj
 0003:00001b44       ??_C@_0P@NFKO@User?5defined?53?$AA@ 1004fb44     LexPOV.obj
 0003:00001b54       ??_C@_0P@HPDJ@User?5defined?52?$AA@ 1004fb54     LexPOV.obj
 0003:00001b64       ??_C@_0P@IAIA@User?5defined?51?$AA@ 1004fb64     LexPOV.obj
 0003:00001b74       ??_C@_0BF@DHIO@Predefined?5Functions?$AA@ 1004fb74     LexPOV.obj
 0003:00001b8c       ??_C@_0BH@LKLA@Predefined?5Identifiers?$AA@ 1004fb8c     LexPOV.obj
 0003:00001ba4       ??_C@_0BK@JNFF@Types?5?$CG?5Modifiers?5?$CG?5Items?$AA@ 1004fba4     LexPOV.obj
 0003:00001bc0       ??_C@_0BL@PNNO@Objects?5?$CG?5CSG?5?$CG?5Appearance?$AA@ 1004fbc0     LexPOV.obj
 0003:00001bdc       ??_C@_0BE@IIPM@Language?5directives?$AA@ 1004fbdc     LexPOV.obj
 0003:00001bf0       ??_C@_03OMMB@pov?$AA@      1004fbf0     LexPOV.obj
 0003:00001bf4       ??_C@_0M@DOMH@abfnrtuv0?8?$CC?$AA@ 1004fbf4     LexPOV.obj
 0003:00001c00       ??_C@_0P@DPPP@fold?4directive?$AA@ 1004fc00     LexPOV.obj
 0003:00001c10       ??_C@_0BH@KJIM@User?9defined?5operators?$AA@ 1004fc10     LexPS.obj
 0003:00001c28       ??_C@_0BH@NDD@RIP?9specific?5operators?$AA@ 1004fc28     LexPS.obj
 0003:00001c40       ??_C@_0BF@HFFP@PS?5Level?53?5operators?$AA@ 1004fc40     LexPS.obj
 0003:00001c58       ??_C@_0BF@JPNA@PS?5Level?52?5operators?$AA@ 1004fc58     LexPS.obj
 0003:00001c70       ??_C@_0BF@KAEA@PS?5Level?51?5operators?$AA@ 1004fc70     LexPS.obj
 0003:00001c88       ??_C@_02LELH@ps?$AA@       1004fc88     LexPS.obj
 0003:00001c8c       ??_C@_08PHKO@ps?4level?$AA@ 1004fc8c     LexPS.obj
 0003:00001c98       ??_C@_0M@BIHF@ps?4tokenize?$AA@ 1004fc98     LexPS.obj
 0003:00001ca4       ??_C@_0BI@BHNJ@Highlighted?5identifiers?$AA@ 1004fca4     LexPython.obj
 0003:00001cbc       ??_C@_06LGND@python?$AA@   1004fcbc     LexPython.obj
 0003:00001cc4       ??_C@_03BJDB@?$CC?$CC?$CC?$AA@ 1004fcc4     LexPython.obj
 0003:00001cc8       ??_C@_03EPLG@?8?8?8?$AA@   1004fcc8     LexPython.obj
 0003:00001ccc       ??_C@_0BH@CHMN@tab?4timmy?4whinge?4level?$AA@ 1004fccc     LexPython.obj
 0003:00001ce4       ??_C@_0BD@BJFH@fold?4quotes?4python?$AA@ 1004fce4     LexPython.obj
 0003:00001cf8       ??_C@_0BE@DMNA@fold?4comment?4python?$AA@ 1004fcf8     LexPython.obj
 0003:00001d0c       ??_C@_05MAFM@rebol?$AA@    1004fd0c     LexRebol.obj
 0003:00001d14       ??_C@_07EBEE@comment?$AA@  1004fd14     LexRebol.obj
 0003:00001d38       ??_C@_06KKAM@qQrwWx?$AA@   1004fd38     LexRuby.obj
 0003:00001d40       ??_C@_04OPMG@ruby?$AA@     1004fd40     LexRuby.obj
 0003:00001d48       ??_C@_04FIPK@?$DNend?$AA@  1004fd48     LexRuby.obj
 0003:00001d50       ??_C@_05KCGF@print?$AA@    1004fd50     LexRuby.obj
 0003:00001d58       ??_C@_04KEJD@?5?7?6?$AN?$AA@ 1004fd58     LexRuby.obj
 0003:00001d60       ??_C@_04JBO@?$CJ?$HN?$FN?4?$AA@ 1004fd60     LexRuby.obj
 0003:00001d68       ??_C@_0BA@NGNF@?$FL?$CK?$CB?$HO?$CL?9?$CK?1?$CF?$DN?$DM?$DO?$CG?$FO?$HM?$AA@ 1004fd68     LexRuby.obj
 0003:00001d78       ??_C@_05MBPN@?$CC?8?$GA_?9?$AA@ 1004fd78     LexRuby.obj
 0003:00001d80       ??_C@_02KAII@or?$AA@       1004fd80     LexRuby.obj
 0003:00001d84       ??_C@_03OEEH@not?$AA@      1004fd84     LexRuby.obj
 0003:00001d88       ??_C@_06JKEA@unless?$AA@   1004fd88     LexRuby.obj
 0003:00001d90       ??_C@_04GJIP@when?$AA@     1004fd90     LexRuby.obj
 0003:00001d98       ??_C@_06CGBH@return?$AA@   1004fd98     LexRuby.obj
 0003:00001da0       ??_C@_05KICE@elsif?$AA@    1004fda0     LexRuby.obj
 0003:00001da8       ??_C@_05EELJ@break?$AA@    1004fda8     LexRuby.obj
 0003:00001db0       ??_C@_03HFEJ@and?$AA@      1004fdb0     LexRuby.obj
 0003:00001db4       ??_C@_05CBKM@alias?$AA@    1004fdb4     LexRuby.obj
 0003:00001dbc       ??_C@_05JACA@undef?$AA@    1004fdbc     LexRuby.obj
 0003:00001dc4       ??_C@_05DAMM@litnu?$AA@    1004fdc4     LexRuby.obj
 0003:00001dcc       ??_C@_05KIJL@elihw?$AA@    1004fdcc     LexRuby.obj
 0003:00001dd4       ??_C@_03DELP@?$CJ?$HN?$FN?$AA@ 1004fdd4     LexRuby.obj
 0003:00001dd8       ??_C@_03FPOD@?$FL?$HL?$CI?$AA@ 1004fdd8     LexRuby.obj
 0003:00001ddc       ??_C@_08PGKK@scriptol?$AA@ 1004fddc     LexScriptol.obj
 0003:00001de8       ??_C@_0BC@OAHE@Special?5selectors?$AA@ 1004fde8     LexSmalltalk.obj
 0003:000021fc       ??_C@_09LKI@smalltalk?$AA@ 100501fc     LexSmalltalk.obj
 0003:00002208       ??_C@_03GOHA@nil?$AA@      10050208     LexSmalltalk.obj
 0003:0000220c       ??_C@_05CKKE@super?$AA@    1005020c     LexSmalltalk.obj
 0003:00002214       ??_C@_04IBHI@self?$AA@     10050214     LexSmalltalk.obj
 0003:0000221c       ??_C@_0CG@FFBC@User?5defined?5keywords?5and?5identi@ 1005021c     LexSpecman.obj
 0003:00002244       ??_C@_0CC@LAGE@Sequence?5keywords?5and?5identifier@ 10050244     LexSpecman.obj
 0003:00002268       ??_C@_07KPHJ@specman?$AA@  10050268     LexSpecman.obj
 0003:00002270       ??_C@_03BMFN@?9?9?$CB?$AA@ 10050270     LexSpecman.obj
 0003:00002274       ??_C@_05PCBN@spice?$AA@    10050274     LexSpice.obj
 0003:0000227c       ??_C@_0BA@LFHB@User?5Keywords?54?$AA@ 1005027c     LexSQL.obj
 0003:0000228c       ??_C@_0BA@OAJE@User?5Keywords?53?$AA@ 1005028c     LexSQL.obj
 0003:0000229c       ??_C@_0BA@EKAD@User?5Keywords?52?$AA@ 1005029c     LexSQL.obj
 0003:000022ac       ??_C@_0BA@LFLK@User?5Keywords?51?$AA@ 100502ac     LexSQL.obj
 0003:000022bc       ??_C@_08DFJ@SQL?$CKPlus?$AA@ 100502bc     LexSQL.obj
 0003:000022c8       ??_C@_05IOMD@PLDoc?$AA@    100502c8     LexSQL.obj
 0003:000022d0       ??_C@_0BB@DDEE@Database?5Objects?$AA@ 100502d0     LexSQL.obj
 0003:000022e4       ??_C@_03BKBO@sql?$AA@      100502e4     LexSQL.obj
 0003:000022e8       ??_C@_03CIGD@pro?$AA@      100502e8     LexSQL.obj
 0003:000022ec       ??_C@_0BP@DNDL@lexer?4sql?4backticks?4identifier?$AA@ 100502ec     LexSQL.obj
 0003:0000230c       ??_C@_0BG@GMKM@sql?4backslash?4escapes?$AA@ 1005030c     LexSQL.obj
 0003:00002324       ??_C@_06BOJK@exists?$AA@   10050324     LexSQL.obj
 0003:0000232c       ??_C@_04FNBC@loop?$AA@     1005032c     LexSQL.obj
 0003:00002334       ??_C@_0BE@LNMC@fold?4sql?4only?4begin?$AA@ 10050334     LexSQL.obj
 0003:00002348       ??_C@_0P@PGID@TADS3?5Keywords?$AA@ 10050348     LexTADS3.obj
 0003:00002358       ??_C@_05PBAG@tads3?$AA@    10050358     LexTADS3.obj
 0003:00002360       ??_C@_03NAME@?4?4?4?$AA@   10050360     LexTADS3.obj
 0003:00002364       ??_C@_02HNOA@is?$AA@       10050364     LexTADS3.obj
 0003:00002368       ??_C@_0M@LADF@expanduser1?$AA@ 10050368     LexTCL.obj
 0003:00002374       ??_C@_0L@CHPK@tkCommands?$AA@ 10050374     LexTCL.obj
 0003:00002380       ??_C@_0O@JDKP@iTCL?5Keywords?$AA@ 10050380     LexTCL.obj
 0003:00002390       ??_C@_0M@LONH@TK?5Keywords?$AA@ 10050390     LexTCL.obj
 0003:0000239c       ??_C@_0N@DPGK@TCL?5Keywords?$AA@ 1005039c     LexTCL.obj
 0003:000023ac       ??_C@_03ODID@tcl?$AA@      100503ac     LexTCL.obj
 0003:000023b0       ??_C@_0BB@FEAH@ConTeXt?5Romanian?$AA@ 100503b0     LexTeX.obj
 0003:000023c4       ??_C@_0BA@FLMI@ConTeXt?5Italian?$AA@ 100503c4     LexTeX.obj
 0003:000023d4       ??_C@_0O@LLNG@ConTeXt?5Czech?$AA@ 100503d4     LexTeX.obj
 0003:000023e4       ??_C@_0P@IMPH@ConTeXt?5German?$AA@ 100503e4     LexTeX.obj
 0003:000023f4       ??_C@_0BA@DBCB@ConTeXt?5English?$AA@ 100503f4     LexTeX.obj
 0003:00002404       ??_C@_0O@HIHO@ConTeXt?5Dutch?$AA@ 10050404     LexTeX.obj
 0003:00002414       ??_C@_0BJ@KCND@TeX?0?5eTeX?0?5pdfTeX?0?5Omega?$AA@ 10050414     LexTeX.obj
 0003:00002430       ??_C@_03JHFA@tex?$AA@      10050430     LexTeX.obj
 0003:00002434       ??_C@_05OPJ@newif?$AA@     10050434     LexTeX.obj
 0003:0000243c       ??_C@_0BM@GIBH@lexer?4tex?4interface?4default?$AA@ 1005043c     LexTeX.obj
 0003:00002458       ??_C@_0BC@JFJM@lexer?4tex?4auto?4if?$AA@ 10050458     LexTeX.obj
 0003:0000246c       ??_C@_0BH@PAMN@lexer?4tex?4use?4keywords?$AA@ 1005046c     LexTeX.obj
 0003:00002484       ??_C@_0BK@JMPP@lexer?4tex?4comment?4process?$AA@ 10050484     LexTeX.obj
 0003:000024a0       ??_C@_0BA@FPJ@interface?$DNlatex?$AA@ 100504a0     LexTeX.obj
 0003:000024b0       ??_C@_0N@IGDJ@interface?$DNro?$AA@ 100504b0     LexTeX.obj
 0003:000024c0       ??_C@_0N@GAEK@interface?$DNit?$AA@ 100504c0     LexTeX.obj
 0003:000024d0       ??_C@_0N@FDIB@interface?$DNcz?$AA@ 100504d0     LexTeX.obj
 0003:000024e0       ??_C@_0N@JKPJ@interface?$DNde?$AA@ 100504e0     LexTeX.obj
 0003:000024f0       ??_C@_0N@CHFC@interface?$DNen?$AA@ 100504f0     LexTeX.obj
 0003:00002500       ??_C@_0N@PMNH@interface?$DNnl?$AA@ 10050500     LexTeX.obj
 0003:00002510       ??_C@_0O@BBI@interface?$DNtex?$AA@ 10050510     LexTeX.obj
 0003:00002520       ??_C@_0O@JKOM@interface?$DNall?$AA@ 10050520     LexTeX.obj
 0003:00002530       ??_C@_02MAKP@vb?$AA@       10050530     LexVB.obj
 0003:00002534       ??_C@_08MGDM@vbscript?$AA@ 10050534     LexVB.obj
 0003:00002540       ??_C@_0CD@DCKH@User?5defined?5tasks?5and?5identifie@ 10050540     LexVerilog.obj
 0003:00002564       ??_C@_0N@DBOL@System?5Tasks?$AA@ 10050564     LexVerilog.obj
 0003:00002574       ??_C@_07MOJB@verilog?$AA@  10050574     LexVerilog.obj
 0003:0000257c       ??_C@_0N@INHI@endprimitive?$AA@ 1005057c     LexVerilog.obj
 0003:0000258c       ??_C@_0L@KIMB@endspecify?$AA@ 1005058c     LexVerilog.obj
 0003:00002598       ??_C@_08FIHJ@endtable?$AA@ 10050598     LexVerilog.obj
 0003:000025a4       ??_C@_07LLPP@endtask?$AA@  100505a4     LexVerilog.obj
 0003:000025ac       ??_C@_04PHLL@join?$AA@     100505ac     LexVerilog.obj
 0003:000025b4       ??_C@_09HOEO@primitive?$AA@ 100505b4     LexVerilog.obj
 0003:000025c0       ??_C@_07HKOD@specify?$AA@  100505c0     LexVerilog.obj
 0003:000025c8       ??_C@_04NJEH@task?$AA@     100505c8     LexVerilog.obj
 0003:000025d0       ??_C@_05FABL@table?$AA@    100505d0     LexVerilog.obj
 0003:000025d8       ??_C@_04KMKK@fork?$AA@     100505d8     LexVerilog.obj
 0003:000025e0       ??_C@_05EKBL@casez?$AA@    100505e0     LexVerilog.obj
 0003:000025e8       ??_C@_05BPDF@casex?$AA@    100505e8     LexVerilog.obj
 0003:000025f0       ??_C@_0BD@EHEF@fold?4verilog?4flags?$AA@ 100505f0     LexVerilog.obj
 0003:00002604       ??_C@_0L@JHPN@User?5Words?$AA@ 10050604     LexVHDL.obj
 0003:00002610       ??_C@_0P@LHDM@Standard?5Types?$AA@ 10050610     LexVHDL.obj
 0003:00002620       ??_C@_0BC@GAOE@Standard?5Packages?$AA@ 10050620     LexVHDL.obj
 0003:00002634       ??_C@_0BD@CBHL@Standard?5Functions?$AA@ 10050634     LexVHDL.obj
 0003:00002648       ??_C@_04PFJ@vhdl?$AA@      10050648     LexVHDL.obj
 0003:00002650       ??_C@_07JMKN@process?$AA@  10050650     LexVHDL.obj
 0003:00002658       ??_C@_08PIBH@generate?$AA@ 10050658     LexVHDL.obj
 0003:00002664       ??_C@_06HNP@entity?$AA@    10050664     LexVHDL.obj
 0003:0000266c       ??_C@_09MIFH@component?$AA@ 1005066c     LexVHDL.obj
 0003:00002678       ??_C@_0N@KIHH@architecture?$AA@ 10050678     LexVHDL.obj
 0003:00002688       ??_C@_01FAJB@?$DL?$AA@     10050688     LexVHDL.obj
 0003:0000268c       ??_C@_0BD@OKCG@fold?4at?4Parenthese?$AA@ 1005068c     LexVHDL.obj
 0003:000026a0       ??_C@_0O@CNIF@fold?4at?4Begin?$AA@ 100506a0     LexVHDL.obj
 0003:000026b0       ??_C@_0HK@GGKC@architecture?5begin?5case?5componen@ 100506b0     LexVHDL.obj
 0003:0000272c       ??_C@_04LOCK@yaml?$AA@     1005072c     LexYAML.obj
 0003:00002734       ??_C@_03OCLJ@?9?9?9?$AA@   10050734     LexYAML.obj
 0003:00002738       ??_C@_0BC@IFBM@fold?4comment?4yaml?$AA@ 10050738     LexYAML.obj
 0003:00002750       ??_C@_08DJOO@SciLexer?$AA@ 10050750     PlatWin.obj
 0003:0000275c       ??_C@_09KLGI@Scintilla?$AA@ 1005075c     PlatWin.obj
 0003:00002768       ??_C@_07EOKN@listbox?$AA@  10050768     PlatWin.obj
 0003:00002770       ??_C@_07OFIO@Verdana?$AA@  10050770     PlatWin.obj
 0003:00002778       ??_C@_0L@EMGP@AlphaBlend?$AA@ 10050778     PlatWin.obj
 0003:00002784       ??_C@_07OGPB@Msimg32?$AA@  10050784     PlatWin.obj
 0003:0000278c       ??_C@_01KMMP@?$CJ?$AA@     1005078c     PropSet.obj
 0003:00002790       ??_C@_02IJKA@$?$CI?$AA@    10050790     PropSet.obj
 0003:00002794       ??_C@_0BP@IDIM@No?5previous?5regular?5expression?$AA@ 10050794     RESearch.obj
 0003:000027b4       ??_C@_0M@KLAK@Unmatched?5?$CJ?$AA@ 100507b4     RESearch.obj
 0003:000027c0       ??_C@_0BH@NDHF@Null?5pattern?5inside?5?$CI?$CJ?$AA@ 100507c0     RESearch.obj
 0003:000027d8       ??_C@_0BC@HBCH@Too?5many?5?$CI?$CJ?5pairs?$AA@ 100507d8     RESearch.obj
 0003:000027ec       ??_C@_0BA@NKMJ@Illegal?5closure?$AA@ 100507ec     RESearch.obj
 0003:000027fc       ??_C@_0O@DOHK@Empty?5closure?$AA@ 100507fc     RESearch.obj
 0003:0000280c       ??_C@_09MKBN@Missing?5?$FN?$AA@ 1005080c     RESearch.obj
 0003:00002818       ??_C@_0N@CGDK@Unmatched?5?2?$CJ?$AA@ 10050818     RESearch.obj
 0003:00002828       ??_C@_0BJ@JJKN@Null?5pattern?5inside?5?2?$CI?2?$CJ?$AA@ 10050828     RESearch.obj
 0003:00002844       ??_C@_0BE@FEC@Too?5many?5?2?$CI?2?$CJ?5pairs?$AA@ 10050844     RESearch.obj
 0003:00002858       ??_C@_0BH@FNMH@Undetermined?5reference?$AA@ 10050858     RESearch.obj
 0003:00002870       ??_C@_0BD@ONJN@Cyclical?5reference?$AA@ 10050870     RESearch.obj
 0003:00002884       ??_C@_0BJ@MAI@Null?5pattern?5inside?5?2?$DM?2?$DO?$AA@ 10050884     RESearch.obj
 0003:000028a0       ??_C@_0BB@CMPJ@Pattern?5too?5long?$AA@ 100508a0     RESearch.obj
 0003:000028b4       ??_C@_0N@IMKN@Unmatched?5?2?$CI?$AA@ 100508b4     RESearch.obj
 0003:000028c4       ??_C@_0M@BJN@Unmatched?5?$CI?$AA@ 100508c4     RESearch.obj
 0003:000028d0       ??_C@_0L@JNA@Select?5All?$AA@ 100508d0     ScintillaBase.obj
 0003:000028dc       ??_C@_06DHPE@Delete?$AA@   100508dc     ScintillaBase.obj
 0003:000028e4       ??_C@_05HIKF@Paste?$AA@    100508e4     ScintillaBase.obj
 0003:000028ec       ??_C@_04GHPJ@Copy?$AA@     100508ec     ScintillaBase.obj
 0003:000028f4       ??_C@_03NOMD@Cut?$AA@      100508f4     ScintillaBase.obj
 0003:000028f8       ??_C@_04EFBD@Redo?$AA@     100508f8     ScintillaBase.obj
 0003:00002900       ??_C@_04NJCD@Undo?$AA@     10050900     ScintillaBase.obj
 0003:00002984       ??_C@_0BC@HCHI@MSDEVColumnSelect?$AA@ 10050984     ScintillaWin.obj
 0003:00002998       ??_C@_08HPGN@ACallTip?$AA@ 10050998     ScintillaWin.obj
 0003:000029a4       ??_C@_09BEMM@?1?$CK?5XPM?5?$CK?1?$AA@ 100509a4     XPM.obj
 0003:000029b0       ??_C@_04IBHL@?1?$CK?5X?$AA@ 100509b0     XPM.obj
 0003:000029c0       __fltused                  100509c0     LIBCMT:fpinit.obj
 0003:000029c4       __ldused                   100509c4     LIBCMT:fpinit.obj
 0003:000029c8       __FPinit                   100509c8     LIBCMT:fpinit.obj
 0003:000029cc       __FPmtinit                 100509cc     LIBCMT:fpinit.obj
 0003:000029d0       __FPmtterm                 100509d0     LIBCMT:fpinit.obj
 0003:000029d4       __aexit_rtn                100509d4     LIBCMT:dllcrt0.obj
 0003:000029d8       __pctype                   100509d8     LIBCMT:ctype.obj
 0003:000029dc       __pwctype                  100509dc     LIBCMT:ctype.obj
 0003:000029e0       __ctype                    100509e0     LIBCMT:ctype.obj
 0003:00002be4       ___mb_cur_max              10050be4     LIBCMT:nlsdata1.obj
 0003:00002be8       ___decimal_point           10050be8     LIBCMT:nlsdata1.obj
 0003:00002bec       ___decimal_point_length    10050bec     LIBCMT:nlsdata1.obj
 0003:00002bf0       ___nullstring              10050bf0     LIBCMT:output.obj
 0003:00002bf4       ___wnullstring             10050bf4     LIBCMT:output.obj
 0003:00002bf8       __locktable                10050bf8     LIBCMT:mlock.obj
 0003:00002dd0       __cfltcvt_tab              10050dd0     LIBCMT:cmiscdat.obj
 0003:00002e78       ___tlsindex                10050e78     LIBCMT:tidtable.obj
 0003:00002e80       ___badioinfo               10050e80     LIBCMT:ioinit.obj
 0003:00002ea4       __amblksiz                 10050ea4     LIBCMT:heapinit.obj
 0003:00002ea8       ___old_small_block_heap    10050ea8     LIBCMT:sbheap.obj
 0003:00004ecc       ___old_sbh_threshold       10052ecc     LIBCMT:sbheap.obj
 0003:00004ed0       __NLG_Destination          10052ed0     LIBCMT:exsup.obj
 0003:00004ee0       __iob                      10052ee0     LIBCMT:_file.obj
 0003:000052f8       __XcptActTab               100532f8     LIBCMT:winxfltr.obj
 0003:00005370       __First_FPE_Indx           10053370     LIBCMT:winxfltr.obj
 0003:00005374       __Num_FPE                  10053374     LIBCMT:winxfltr.obj
 0003:00005378       __XcptActTabSize           10053378     LIBCMT:winxfltr.obj
 0003:0000537c       __XcptActTabCount          1005337c     LIBCMT:winxfltr.obj
 0003:00005478       ___lc_time_curr            10053478     LIBCMT:strftime.obj
 0003:00005480       ___lc_time_c               10053480     LIBCMT:strftime.obj
 0003:00005530       ___lconv_static_decimal    10053530     LIBCMT:lconv.obj
 0003:00005538       ___lconv_c                 10053538     LIBCMT:lconv.obj
 0003:00005568       ___lconv                   10053568     LIBCMT:lconv.obj
 0003:00005570       __timezone                 10053570     LIBCMT:timeset.obj
 0003:00005574       __daylight                 10053574     LIBCMT:timeset.obj
 0003:00005578       __dstbias                  10053578     LIBCMT:timeset.obj
 0003:000055fc       __tzname                   100535fc     LIBCMT:timeset.obj
 0003:00005624       __lpdays                   10053624     LIBCMT:days.obj
 0003:00005658       __days                     10053658     LIBCMT:days.obj
 0003:00005690       __pow10pos                 10053690     LIBCMT:constpow.obj
 0003:000057f0       __pow10neg                 100537f0     LIBCMT:constpow.obj
 0003:00005950       ?minder@@3VLMMinder@@A     10053950     ExternalLexer.obj
 0003:00005954       ?theInstance@LexerManager@@0PAV1@A 10053954     ExternalLexer.obj
 0003:00005958       ??_C@_00A@?$AA@            10053958     ExternalLexer.obj
 0003:0000595c       ?base@LexerModule@@1PBV1@B 1005395c     KeyWords.obj
 0003:00005968       ?lmAda@@3VLexerModule@@A   10053968     LexAda.obj
 0003:00005988       ?lmAIPI@@3VLexerModule@@A  10053988     LexAIPI.obj
 0003:000059a8       ?lmAIPINoCase@@3VLexerModule@@A 100539a8     LexAIPI.obj
 0003:000059c8       ?lmAIPIBullant@@3VLexerModule@@A 100539c8     LexAIPIBullant.obj
 0003:000059e8       ?lmAPDL@@3VLexerModule@@A  100539e8     LexAPDL.obj
 0003:00005a08       ?lmAsm@@3VLexerModule@@A   10053a08     LexAsm.obj
 0003:00005a28       ?lmAns1@@3VLexerModule@@A  10053a28     LexAsn1.obj
 0003:00005a48       ?lmAU3@@3VLexerModule@@A   10053a48     LexAU3.obj
 0003:00005a68       ?lmAVE@@3VLexerModule@@A   10053a68     LexAVE.obj
 0003:00005a88       ?lmBaan@@3VLexerModule@@A  10053a88     LexBaan.obj
 0003:00005aa8       ?lmBash@@3VLexerModule@@A  10053aa8     LexBash.obj
 0003:00005ac8       ?lmPureBasic@@3VLexerModule@@A 10053ac8     LexBasic.obj
 0003:00005ae8       ?lmFreeBasic@@3VLexerModule@@A 10053ae8     LexBasic.obj
 0003:00005b08       ?lmBlitzBasic@@3VLexerModule@@A 10053b08     LexBasic.obj
 0003:00005b28       ?lmBullant@@3VLexerModule@@A 10053b28     LexBullant.obj
 0003:00005b48       ?lmCaml@@3VLexerModule@@A  10053b48     LexCaml.obj
 0003:00005b68       ?lmClw@@3VLexerModule@@A   10053b68     LexCLW.obj
 0003:00005b88       ?lmClwNoCase@@3VLexerModule@@A 10053b88     LexCLW.obj
 0003:00005ba8       ?lmConf@@3VLexerModule@@A  10053ba8     LexConf.obj
 0003:00005bc8       ?lmCPP@@3VLexerModule@@A   10053bc8     LexCPP.obj
 0003:00005be8       ?lmCPPNoCase@@3VLexerModule@@A 10053be8     LexCPP.obj
 0003:00005c08       ?lmNncrontab@@3VLexerModule@@A 10053c08     LexCrontab.obj
 0003:00005c28       ?lmCsound@@3VLexerModule@@A 10053c28     LexCsound.obj
 0003:00005c48       ?lmCss@@3VLexerModule@@A   10053c48     LexCSS.obj
 0003:00005c68       ?lmEiffel@@3VLexerModule@@A 10053c68     LexEiffel.obj
 0003:00005c88       ?lmEiffelkw@@3VLexerModule@@A 10053c88     LexEiffel.obj
 0003:00005ca8       ?lmErlang@@3VLexerModule@@A 10053ca8     LexErlang.obj
 0003:00005cc8       ?lmESCRIPT@@3VLexerModule@@A 10053cc8     LexEScript.obj
 0003:00005ce8       ?lmFlagShip@@3VLexerModule@@A 10053ce8     LexFlagship.obj
 0003:00005d08       ?lmForth@@3VLexerModule@@A 10053d08     LexForth.obj
 0003:00005d40       ?buffer@@3PADA             10053d40     LexForth.obj
 0003:00005d48       ?lmF77@@3VLexerModule@@A   10053d48     LexFortran.obj
 0003:00005d68       ?lmFortran@@3VLexerModule@@A 10053d68     LexFortran.obj
 0003:00005f18       ?lmGui4Cli@@3VLexerModule@@A 10053f18     LexGui4Cli.obj
 0003:00005f38       ?lmHaskell@@3VLexerModule@@A 10053f38     LexHaskell.obj
 0003:00005f58       ?lmPHPSCRIPT@@3VLexerModule@@A 10053f58     LexHTML.obj
 0003:00005f78       ?lmASP@@3VLexerModule@@A   10053f78     LexHTML.obj
 0003:00005f98       ?lmPHP@@3VLexerModule@@A   10053f98     LexHTML.obj
 0003:00005fb8       ?lmXML@@3VLexerModule@@A   10053fb8     LexHTML.obj
 0003:00005fd8       ?lmHTML@@3VLexerModule@@A  10053fd8     LexHTML.obj
 0003:00005ff8       ?lmInno@@3VLexerModule@@A  10053ff8     LexInno.obj
 0003:00006018       ?lmKix@@3VLexerModule@@A   10054018     LexKix.obj
 0003:00006038       ?lmLISP@@3VLexerModule@@A  10054038     LexLisp.obj
 0003:00006058       ?lmLout@@3VLexerModule@@A  10054058     LexLout.obj
 0003:00006078       ?lmLua@@3VLexerModule@@A   10054078     LexLua.obj
 0003:00006098       ?lmOctave@@3VLexerModule@@A 10054098     LexMatlab.obj
 0003:000060b8       ?lmMatlab@@3VLexerModule@@A 100540b8     LexMatlab.obj
 0003:000060d8       ?lmMETAPOST@@3VLexerModule@@A 100540d8     LexMetapost.obj
 0003:000060f8       ?lmMMIXAL@@3VLexerModule@@A 100540f8     LexMMIXAL.obj
 0003:00006118       ?lmLot@@3VLexerModule@@A   10054118     LexMPT.obj
 0003:00006138       ?lmMSSQL@@3VLexerModule@@A 10054138     LexMSSQL.obj
 0003:00006158       ?lmNsis@@3VLexerModule@@A  10054158     LexNsis.obj
 0003:00006178       ?lmOpal@@3VLexerModule@@A  10054178     LexOpal.obj
 0003:00006198       ?lmNull@@3VLexerModule@@A  10054198     LexOthers.obj
 0003:000061b8       ?lmProps@@3VLexerModule@@A 100541b8     LexOthers.obj
 0003:000061d8       ?lmDiff@@3VLexerModule@@A  100541d8     LexOthers.obj
 0003:000061f8       ?lmBatch@@3VLexerModule@@A 100541f8     LexOthers.obj
 0003:00006218       ?lmMake@@3VLexerModule@@A  10054218     LexOthers.obj
 0003:00006238       ?lmErrorList@@3VLexerModule@@A 10054238     LexOthers.obj
 0003:00006258       ?lmLatex@@3VLexerModule@@A 10054258     LexOthers.obj
 0003:00006278       ?lmPascal@@3VLexerModule@@A 10054278     LexPascal.obj
 0003:00006298       ?lmPB@@3VLexerModule@@A    10054298     LexPB.obj
 0003:000062b8       ?lmPerl@@3VLexerModule@@A  100542b8     LexPerl.obj
 0003:000062d8       ?lmPOV@@3VLexerModule@@A   100542d8     LexPOV.obj
 0003:000062f8       ?lmPS@@3VLexerModule@@A    100542f8     LexPS.obj
 0003:00006318       ?lmPython@@3VLexerModule@@A 10054318     LexPython.obj
 0003:00006338       ?lmREBOL@@3VLexerModule@@A 10054338     LexRebol.obj
 0003:00006358       ?lmRuby@@3VLexerModule@@A  10054358     LexRuby.obj
 0003:00006378       ?lmScriptol@@3VLexerModule@@A 10054378     LexScriptol.obj
 0003:00006398       ?lmSmalltalk@@3VLexerModule@@A 10054398     LexSmalltalk.obj
 0003:000063b8       ?lmSpecman@@3VLexerModule@@A 100543b8     LexSpecman.obj
 0003:000063d8       ?lmSpice@@3VLexerModule@@A 100543d8     LexSpice.obj
 0003:000063f8       ?lmSQL@@3VLexerModule@@A   100543f8     LexSQL.obj
 0003:00006418       ?lmTADS3@@3VLexerModule@@A 10054418     LexTADS3.obj
 0003:00006438       ?lmTCL@@3VLexerModule@@A   10054438     LexTCL.obj
 0003:00006458       ?lmTeX@@3VLexerModule@@A   10054458     LexTeX.obj
 0003:00006478       ?lmVB@@3VLexerModule@@A    10054478     LexVB.obj
 0003:00006498       ?lmVBScript@@3VLexerModule@@A 10054498     LexVB.obj
 0003:000064b8       ?lmVerilog@@3VLexerModule@@A 100544b8     LexVerilog.obj
 0003:000064d8       ?lmVHDL@@3VLexerModule@@A  100544d8     LexVHDL.obj
 0003:000064f8       ?lmYAML@@3VLexerModule@@A  100544f8     LexYAML.obj
 0003:00006520       ?ItemInset@ListBoxX@@0VPoint@@B 10054520     PlatWin.obj
 0003:00006528       ?ImageInset@ListBoxX@@0VPoint@@B 10054528     PlatWin.obj
 0003:00006548       ?TextInset@ListBoxX@@0VPoint@@B 10054548     PlatWin.obj
 0003:00006560       ?first@FontCached@@0PAV1@A 10054560     PlatWin.obj
 0003:00006568       ?caseSensitiveFilenames@PropSet@@1_NA 10054568     PropSet.obj
 0003:0000656c       ?hInstance@ScintillaWin@@0PAUHINSTANCE__@@A 1005456c     ScintillaWin.obj
 0003:00006570       ??_C@_03A@?$AA?$AA?$AA?$AA@ 10054570     ScintillaWin.obj
 0003:00006580       ___fastflag                10054580     LIBCMT:fpinit.obj
 0003:00006584       __adjust_fdiv              10054584     LIBCMT:fpinit.obj
 0003:0000658c       __aenvptr                  1005458c     LIBCMT:dllcrt0.obj
 0003:00006590       __wenvptr                  10054590     LIBCMT:dllcrt0.obj
 0003:00006594       ___error_mode              10054594     LIBCMT:dllcrt0.obj
 0003:00006598       ___app_type                10054598     LIBCMT:dllcrt0.obj
 0003:0000660c       ___lc_handle               1005460c     LIBCMT:nlsdata2.obj
 0003:00006624       ___lc_codepage             10054624     LIBCMT:nlsdata2.obj
 0003:00006628       ___lc_collate_cp           10054628     LIBCMT:nlsdata2.obj
 0003:00006630       __umaskval                 10054630     LIBCMT:crt0dat.obj
 0003:00006634       __osver                    10054634     LIBCMT:crt0dat.obj
 0003:00006638       __winver                   10054638     LIBCMT:crt0dat.obj
 0003:0000663c       __winmajor                 1005463c     LIBCMT:crt0dat.obj
 0003:00006640       __winminor                 10054640     LIBCMT:crt0dat.obj
 0003:00006644       ___argc                    10054644     LIBCMT:crt0dat.obj
 0003:00006648       ___argv                    10054648     LIBCMT:crt0dat.obj
 0003:0000664c       ___wargv                   1005464c     LIBCMT:crt0dat.obj
 0003:00006650       __environ                  10054650     LIBCMT:crt0dat.obj
 0003:00006654       ___initenv                 10054654     LIBCMT:crt0dat.obj
 0003:00006658       __wenviron                 10054658     LIBCMT:crt0dat.obj
 0003:0000665c       ___winitenv                1005465c     LIBCMT:crt0dat.obj
 0003:00006660       __pgmptr                   10054660     LIBCMT:crt0dat.obj
 0003:00006664       __wpgmptr                  10054664     LIBCMT:crt0dat.obj
 0003:00006668       __exitflag                 10054668     LIBCMT:crt0dat.obj
 0003:0000666c       __C_Termination_Done       1005466c     LIBCMT:crt0dat.obj
 0003:00006670       __C_Exit_Done              10054670     LIBCMT:crt0dat.obj
 0003:00006688       __adbgmsg                  10054688     LIBCMT:crt0msg.obj
 0003:00006798       __newmode                  10054798     LIBCMT:_newmode.obj
 0003:0000679c       ?_pnhHeap@@3P6AHI@ZA       1005479c     LIBCMT:handler.obj
 0003:000067a4       __cflush                   100547a4     LIBCMT:_file.obj
 0003:000067a8       ___lc_time_intl            100547a8     LIBCMT:inittime.obj
 0003:000067c4       ___lc_id                   100547c4     LIBCMT:nlsdata3.obj
 0003:00006824       ___lconv_static_null       10054824     LIBCMT:lconv.obj
 0003:000068f8       ___mbcodepage              100548f8     <common>
 0003:00006900       ___mbulinfo                10054900     <common>
 0003:0000690c       ___ismbcodepage            1005490c     <common>
 0003:00006920       __mbcasemap                10054920     <common>
 0003:00006a20       __mbctype                  10054a20     <common>
 0003:00006b24       ___mblcid                  10054b24     <common>
 0003:00006b28       ___piob                    10054b28     <common>
 0003:00006b40       __bufin                    10054b40     <common>
 0003:00007b40       __nstream                  10055b40     <common>
 0003:00007b44       ___sbh_sizeHeaderList      10055b44     <common>
 0003:00007b48       ___sbh_indGroupDefer       10055b48     <common>
 0003:00007b4c       ___sbh_pHeaderScan         10055b4c     <common>
 0003:00007b50       ___sbh_pHeaderDefer        10055b50     <common>
 0003:00007b54       ___sbh_cntHeaderList       10055b54     <common>
 0003:00007b58       ___sbh_pHeaderList         10055b58     <common>
 0003:00007b5c       ___sbh_threshold           10055b5c     <common>
 0003:00007b60       __crtheap                  10055b60     <common>
 0003:00007b64       ___active_heap             10055b64     <common>
 0003:00007b80       ___pioinfo                 10055b80     <common>
 0003:00007c80       __nhandle                  10055c80     <common>
 0003:00007c84       ___env_initialized         10055c84     <common>
 0003:00007c88       ___mbctype_initialized     10055c88     <common>
 0003:00007c8c       ___onexitend               10055c8c     <common>
 0003:00007c90       ___onexitbegin             10055c90     <common>
 0003:00007c94       ___setlc_active            10055c94     <common>
 0003:00007c98       ___unguarded_readlc_active 10055c98     <common>
 0003:00007c9c       __acmdln                   10055c9c     <common>
 0003:00007ca0       __pRawDllMain              10055ca0     <common>

 entry point at        0001:00042f53

 Static symbols

 0001:00041571       ?NextField@@YAPBDPBD@Z     10042571 f   XPM.obj
 0001:000415a0       ?MeasureLength@@YAIPBD@Z   100425a0 f   XPM.obj
 0001:0004024f       ?getRange@@YAXIIAAVAccessor@@PADI@Z 1004124f f   StyleContext.obj
 0001:000402c2       ?getRangeLowered@@YAXIIAAVAccessor@@PADI@Z 100412c2 f   StyleContext.obj
 0001:0003d450       ?InputCodePage@@YAHXZ      1003e450 f   ScintillaWin.obj
 0001:0003dee4       ?LoWord@@YAGK@Z            1003eee4 f   ScintillaWin.obj
 0001:0003deea       ?HiWord@@YAGK@Z            1003eeea f   ScintillaWin.obj
 0001:0003def2       ?KeyTranslate@@YAHH@Z      1003eef2 f   ScintillaWin.obj
 0001:0003dfe1       ?SciMessageFromEM@@YAII@Z  1003efe1 f   ScintillaWin.obj
 0001:0003ea0a       ?CodePageFromCharSet@@YAIKI@Z 1003fa0a f   ScintillaWin.obj
 0001:0003f5a4       ?CompareDevCap@@YA_NPAUHDC__@@0H@Z 100405a4 f   ScintillaWin.obj
 0001:0003fe16       ?PointerFromWindow@@YAPAXPAUHWND__@@@Z 10040e16 f   ScintillaWin.obj
 0001:0003a1d6       ?SetWindowPointer@@YAXPAUHWND__@@PAX@Z 1003b1d6 f   PlatWin.obj
 0001:0003aaca       ?ExpandAllInPlace@@YAHAAVPropSet@@AAVSString@@HABUVarChain@@@Z 1003baca f   PropSet.obj
 0001:0003ae47       ?ArrayFromWordList@@YAPAPADPADPAH_N@Z 1003be47 f   PropSet.obj
 0001:0003b02b       ?SortWordList@@YAXPAPADI@Z 1003c02b f   PropSet.obj
 0001:000379fe       ?SetLogFont@@YAXAAUtagLOGFONTA@@PBDHH_N2@Z 100389fe f   PlatWin.obj
 0001:00037a53       ?HashFont@@YAHPBDHH_N1@Z   10038a53 f   PlatWin.obj
 0001:00038069       ?RectFromPRectangle@@YA?AUtagRECT@@VPRectangle@@@Z 10039069 f   PlatWin.obj
 0001:000383c0       ?AllFour@@YAXPAKHHHHK@Z    100393c0 f   PlatWin.obj
 0001:00038e39       ?Window_SendMessage@@YAJPAVWindow@@IIJ@Z 10039e39 f   PlatWin.obj
 0001:00039062       _$E9                       1003a062 f   PlatWin.obj
 0001:00039067       _$E8                       1003a067 f   PlatWin.obj
 0001:00039076       _$E12                      1003a076 f   PlatWin.obj
 0001:0003907b       _$E11                      1003a07b f   PlatWin.obj
 0001:0003908d       _$E15                      1003a08d f   PlatWin.obj
 0001:00039092       _$E14                      1003a092 f   PlatWin.obj
 0001:0003fe16       ?PointerFromWindow@@YAPAXPAUHWND__@@@Z 10040e16 f   ScintillaWin.obj
 0001:00039f41       ?GetWindowLongPtr@@YAJPAUHWND__@@H@Z 1003af41 f   PlatWin.obj
 0001:0003a180       ?SetWindowLongPtr@@YAJPAUHWND__@@HJ@Z 1003b180 f   PlatWin.obj
 0001:0003a1d6       ?SetWindowPointer@@YAXPAUHWND__@@PAX@Z 1003b1d6 f   PlatWin.obj
 0001:0003a45b       ?ListBoxX_Register@@YA_NXZ 1003b45b f   PlatWin.obj
 0001:000375c1       ?DrawBox@@YAXPAVSurface@@HHHVColourAllocated@@1@Z 100385c1 f   LineMarker.obj
 0001:0003760c       ?DrawCircle@@YAXPAVSurface@@HHHVColourAllocated@@1@Z 1003860c f   LineMarker.obj
 0001:00037657       ?DrawPlus@@YAXPAVSurface@@HHHVColourAllocated@@@Z 10038657 f   LineMarker.obj
 0001:000376d2       ?DrawMinus@@YAXPAVSurface@@HHHVColourAllocated@@@Z 100386d2 f   LineMarker.obj
 0001:00036746       _$E7                       10037746 f   LexYAML.obj
 0001:00036750       _$E4                       10037750 f   LexYAML.obj
 0001:00036773       ?ColouriseYAMLDoc@@YAXIHHQAPAVWordList@@AAVAccessor@@@Z 10037773 f   LexYAML.obj
 0001:00034c8e       ?AtEOL@@YA_NAAVAccessor@@I@Z 10035c8e f   LexTeX.obj
 0001:0003684c       ?ColouriseYAMLLine@@YAXPADIIIIAAVWordList@@AAVAccessor@@@Z 1003784c f   LexYAML.obj
 0001:00036a99       ?SpaceCount@@YAIPAD@Z      10037a99 f   LexYAML.obj
 0001:00036ab4       ?FoldYAMLDoc@@YAXIHHQAPAVWordList@@AAVAccessor@@@Z 10037ab4 f   LexYAML.obj
 0001:00036d34       ?IsCommentLine@@YA_NHAAVAccessor@@@Z 10037d34 f   LexYAML.obj
 0001:00036d53       _$E6                       10037d53 f   LexYAML.obj
 0001:00036d5f       _$E5                       10037d5f f   LexYAML.obj
 0001:00035afa       _$E7                       10036afa f   LexVHDL.obj
 0001:00035b04       _$E4                       10036b04 f   LexVHDL.obj
 0001:00035b27       ?ColouriseVHDLDoc@@YAXIHHQAPAVWordList@@AAVAccessor@@@Z 10036b27 f   LexVHDL.obj
 0001:00035e09       ?FoldVHDLDoc@@YAXIHHQAPAVWordList@@AAVAccessor@@@Z 10036e09 f   LexVHDL.obj
 0001:00035e22       ?FoldNoBoxVHDLDoc@@YAXIHHAAVAccessor@@@Z 10036e22 f   LexVHDL.obj
 0001:000366d2       ?IsCommentLine@@YA_NHAAVAccessor@@@Z 100376d2 f   LexVHDL.obj
 0001:0003672f       _$E6                       1003772f f   LexVHDL.obj
 0001:0003673b       _$E5                       1003773b f   LexVHDL.obj
 0001:00035300       _$E7                       10036300 f   LexVerilog.obj
 0001:0003530a       _$E4                       1003630a f   LexVerilog.obj
 0001:0003532d       ?ColouriseVerilogDoc@@YAXIHHQAPAVWordList@@AAVAccessor@@@Z 1003632d f   LexVerilog.obj
 0001:0003206a       ?IsAWordChar@@YA_NH@Z      1003306a f   LexSpecman.obj
 0001:00035648       ?FoldVerilogDoc@@YAXIHHQAPAVWordList@@AAVAccessor@@@Z 10036648 f   LexVerilog.obj
 0001:00035661       ?FoldNoBoxVerilogDoc@@YAXIHHAAVAccessor@@@Z 10036661 f   LexVerilog.obj
 0001:00035ad8       ?IsStreamCommentStyle@@YA_NH@Z 10036ad8 f   LexVerilog.obj
 0001:00035ae3       _$E6                       10036ae3 f   LexVerilog.obj
 0001:00035aef       _$E5                       10036aef f   LexVerilog.obj
 0001:00034ce0       _$E7                       10035ce0 f   LexVB.obj
 0001:00034cea       _$E4                       10035cea f   LexVB.obj
 0001:00034d0d       ?FoldVBDoc@@YAXIHHQAPAVWordList@@AAVAccessor@@@Z 10035d0d f   LexVB.obj
 0001:00034e37       ?IsVBComment@@YA_NAAVAccessor@@HH@Z 10035e37 f   LexVB.obj
 0001:00034e56       ?ColouriseVBNetDoc@@YAXIHHQAPAVWordList@@AAVAccessor@@@Z 10035e56 f   LexVB.obj
 0001:00034e74       ?ColouriseVBDoc@@YAXIHHQAPAVWordList@@AAVAccessor@@_N@Z 10035e74 f   LexVB.obj
 0001:0002cd39       ?IsANumberChar@@YA_NH@Z    1002dd39 f   LexPOV.obj
 0001:00035287       _$E6                       10036287 f   LexVB.obj
 0001:00035293       _$E5                       10036293 f   LexVB.obj
 0001:0003529e       _$E12                      1003629e f   LexVB.obj
 0001:000352a8       _$E9                       100362a8 f   LexVB.obj
 0001:000352cb       ?ColouriseVBScriptDoc@@YAXIHHQAPAVWordList@@AAVAccessor@@@Z 100362cb f   LexVB.obj
 0001:000352e9       _$E11                      100362e9 f   LexVB.obj
 0001:000352f5       _$E10                      100362f5 f   LexVB.obj
 0001:0003470d       _$E7                       1003570d f   LexTeX.obj
 0001:00034717       _$E4                       10035717 f   LexTeX.obj
 0001:00034737       ?ColouriseTeXDoc@@YAXIHHQAPAVWordList@@AAVAccessor@@@Z 10035737 f   LexTeX.obj
 0001:00034a73       ?isTeXone@@YA_NH@Z         10035a73 f   LexTeX.obj
 0001:00034aab       ?isTeXthree@@YA_NH@Z       10035aab f   LexTeX.obj
 0001:00034aed       ?CheckTeXInterface@@YAHIHAAVAccessor@@H@Z 10035aed f   LexTeX.obj
 0001:00034c8e       ?endOfLine@@YA_NAAVAccessor@@I@Z 10035c8e f   LexTeX.obj
 0001:00034cc9       _$E6                       10035cc9 f   LexTeX.obj
 0001:00034cd5       _$E5                       10035cd5 f   LexTeX.obj
 0001:00033db3       _$E7                       10034db3 f   LexTCL.obj
 0001:00033dbd       _$E4                       10034dbd f   LexTCL.obj
 0001:00033ddd       ?ColouriseTCLDoc@@YAXIHHQAPAVWordList@@AAVAccessor@@@Z 10034ddd f   LexTCL.obj
 0001:00034689       ?IsAWordChar@@YA_NH@Z      10035689 f   LexTCL.obj
 0001:000346b7       ?IsANumberChar@@YA_NH@Z    100356b7 f   LexTCL.obj
 0001:000346f6       _$E6                       100356f6 f   LexTCL.obj
 0001:00034702       _$E5                       10035702 f   LexTCL.obj
 0001:00032cbd       _$E7                       10033cbd f   LexTADS3.obj
 0001:00032cc7       _$E4                       10033cc7 f   LexTADS3.obj
 0001:00032cea       ?ColouriseTADS3Doc@@YAXIHHQAPAVWordList@@AAVAccessor@@@Z 10033cea f   LexTADS3.obj
 0001:00032fbb       ?IsATADS3Operator@@YA_NH@Z 10033fbb f   LexTADS3.obj
 0001:00033039       ?IsANumberStart@@YA_NAAVStyleContext@@@Z 10034039 f   LexTADS3.obj
 0001:00033074       ?ColouriseTADS3Operator@@YAXAAVStyleContext@@@Z 10034074 f   LexTADS3.obj
 0001:00033091       ?ColouriseTADSHTMLString@@YAXAAVStyleContext@@AAH@Z 10034091 f   LexTADS3.obj
 0001:0003315c       ?ColouriseTADS3HTMLTag@@YAXAAVStyleContext@@AAH@Z 1003415c f   LexTADS3.obj
 0001:0003325d       ?ColouriseTADS3HTMLTagStart@@YAXAAVStyleContext@@@Z 1003425d f   LexTADS3.obj
 0001:000332a0       ?ColouriseTADS3Keyword@@YAXAAVStyleContext@@QAPAVWordList@@I@Z 100342a0 f   LexTADS3.obj
 0001:00033434       ?ColouriseTADS3MsgParam@@YAXAAVStyleContext@@AAH@Z 10034434 f   LexTADS3.obj
 0001:000334dd       ?ColouriseTADS3LibDirective@@YAXAAVStyleContext@@AAH@Z 100344dd f   LexTADS3.obj
 0001:000335ae       ?IsADirectiveChar@@YA_NH@Z 100345ae f   LexTADS3.obj
 0001:000335da       ?ColouriseTADS3String@@YAXAAVStyleContext@@AAH@Z 100345da f   LexTADS3.obj
 0001:00033718       ?ColouriseTADS3Comment@@YAXAAVStyleContext@@H@Z 10034718 f   LexTADS3.obj
 0001:00033771       ?ColouriseToEndOfLine@@YAXAAVStyleContext@@HH@Z 10034771 f   LexTADS3.obj
 0001:000337d1       ?ColouriseTADS3Number@@YAXAAVStyleContext@@@Z 100347d1 f   LexTADS3.obj
 0001:00033895       ?IsAHexDigit@@YA_NH@Z      10034895 f   LexTADS3.obj
 0001:000338d2       ?FoldTADS3Doc@@YAXIHHQAPAVWordList@@AAVAccessor@@@Z 100348d2 f   LexTADS3.obj
 0001:00033d01       ?peekAhead@@YADIIAAVAccessor@@@Z 10034d01 f   LexTADS3.obj
 0001:00033d9c       _$E6                       10034d9c f   LexTADS3.obj
 0001:00033da8       _$E5                       10034da8 f   LexTADS3.obj
 0001:0003242c       _$E7                       1003342c f   LexSQL.obj
 0001:00032436       _$E4                       10033436 f   LexSQL.obj
 0001:00032459       ?ColouriseSQLDoc@@YAXIHHQAPAVWordList@@AAVAccessor@@@Z 10033459 f   LexSQL.obj
 0001:0003290c       ?IsADoxygenChar@@YA_NH@Z   1003390c f   LexSQL.obj
 0001:0002cd39       ?IsANumberChar@@YA_NH@Z    1002dd39 f   LexPOV.obj
 0001:0003295a       ?FoldSQLDoc@@YAXIHHQAPAVWordList@@AAVAccessor@@@Z 1003395a f   LexSQL.obj
 0001:00032c87       ?IsStreamCommentStyle@@YA_NH@Z 10033c87 f   LexSQL.obj
 0001:00032ca6       _$E6                       10033ca6 f   LexSQL.obj
 0001:00032cb2       _$E5                       10033cb2 f   LexSQL.obj
 0001:000320b1       _$E7                       100330b1 f   LexSpice.obj
 0001:000320bb       _$E4                       100330bb f   LexSpice.obj
 0001:000320db       _$E6                       100330db f   LexSpice.obj
 0001:000320e7       _$E5                       100330e7 f   LexSpice.obj
 0001:000320f2       ?ColouriseDocument@@YAXIHHQAPAVWordList@@AAVAccessor@@@Z 100330f2 f   LexSpice.obj
 0001:00032227       ?ColouriseComment@@YAXAAVStyleContext@@AA_N@Z 10033227 f   LexSpice.obj
 0001:00032246       ?ColouriseDelimiter@@YAXAAVStyleContext@@AA_N@Z 10033246 f   LexSpice.obj
 0001:0003226c       ?ColouriseNumber@@YAXAAVStyleContext@@AA_N@Z 1003326c f   LexSpice.obj
 0001:0001386e       ?ColouriseWhiteSpace@@YAXAAVStyleContext@@AA_N@Z 1001486e f   LexAda.obj
 0001:00032338       ?ColouriseWord@@YAXAAVStyleContext@@AAVWordList@@11AA_N@Z 10033338 f   LexSpice.obj
 0001:0001394b       ?IsSeparatorOrDelimiterCharacter@@YA_NH@Z 1001494b f   LexAda.obj
 0001:00031a2c       _$E7                       10032a2c f   LexSpecman.obj
 0001:00031a36       _$E4                       10032a36 f   LexSpecman.obj
 0001:00031a59       ?FoldSpecmanDoc@@YAXIHHQAPAVWordList@@AAVAccessor@@@Z 10032a59 f   LexSpecman.obj
 0001:00031a72       ?FoldNoBoxSpecmanDoc@@YAXIHHAAVAccessor@@@Z 10032a72 f   LexSpecman.obj
 0001:00031c41       ?ColouriseSpecmanDocSensitive@@YAXIHHQAPAVWordList@@AAVAccessor@@@Z 10032c41 f   LexSpecman.obj
 0001:00031c5f       ?ColouriseSpecmanDoc@@YAXIHHQAPAVWordList@@AAVAccessor@@_N@Z 10032c5f f   LexSpecman.obj
 0001:0003206a       ?IsAWordChar@@YA_NH@Z      1003306a f   LexSpecman.obj
 0001:0003209a       _$E6                       1003309a f   LexSpecman.obj
 0001:000320a6       _$E5                       100330a6 f   LexSpecman.obj
 0001:000313d3       _$E7                       100323d3 f   LexSmalltalk.obj
 0001:000313dd       _$E4                       100323dd f   LexSmalltalk.obj
 0001:000313fd       ?colorizeSmalltalkDoc@@YAXIHHQAPAVWordList@@AAVAccessor@@@Z 100323fd f   LexSmalltalk.obj
 0001:00031596       ?skipComment@@YAXAAVStyleContext@@@Z 10032596 f   LexSmalltalk.obj
 0001:000315b4       ?skipString@@YAXAAVStyleContext@@@Z 100325b4 f   LexSmalltalk.obj
 0001:000315df       ?handleHash@@YAXAAVStyleContext@@@Z 100325df f   LexSmalltalk.obj
 0001:00031691       ?isAlphaNumeric@@YA_NH@Z   10032691 f   LexSmalltalk.obj
 0001:000316c1       ?handleSpecial@@YAXAAVStyleContext@@@Z 100326c1 f   LexSmalltalk.obj
 0001:000316fa       ?handleNumeric@@YAXAAVStyleContext@@@Z 100326fa f   LexSmalltalk.obj
 0001:0003184c       ?isDigitOfRadix@@YA_NHH@Z  1003284c f   LexSmalltalk.obj
 0001:0003188c       ?handleBinSel@@YAXAAVStyleContext@@@Z 1003288c f   LexSmalltalk.obj
 0001:000318bd       ?handleLetter@@YAXAAVStyleContext@@PAVWordList@@@Z 100328bd f   LexSmalltalk.obj
 0001:00031a15       _$E6                       10032a15 f   LexSmalltalk.obj
 0001:00031a21       _$E5                       10032a21 f   LexSmalltalk.obj
 0001:00030bbc       _$E7                       10031bbc f   LexScriptol.obj
 0001:00030bc6       _$E4                       10031bc6 f   LexScriptol.obj
 0001:00030be6       ?ColouriseSolDoc@@YAXIHHQAPAVWordList@@AAVAccessor@@@Z 10031be6 f   LexScriptol.obj
 0001:00031066       ?ClassifyWordSol@@YAXIIAAVWordList@@AAVAccessor@@PAD@Z 10032066 f   LexScriptol.obj
 0001:0003115b       ?IsSolStringStart@@YA_ND@Z 1003215b f   LexScriptol.obj
 0001:0003116f       ?IsSolWordStart@@YA_ND@Z   1003216f f   LexScriptol.obj
 0001:00031192       ?GetSolStringState@@YAHAAVAccessor@@HPAH@Z 10032192 f   LexScriptol.obj
 0001:0003120e       ?FoldSolDoc@@YAXIHHQAPAVWordList@@AAVAccessor@@@Z 1003220e f   LexScriptol.obj
 0001:0003137d       ?IsSolComment@@YA_NAAVAccessor@@HH@Z 1003237d f   LexScriptol.obj
 0001:000313bc       _$E6                       100323bc f   LexScriptol.obj
 0001:000313c8       _$E5                       100323c8 f   LexScriptol.obj
 0001:000177bf       ?opposite@@YADD@Z          100187bf f   LexBash.obj
 0001:0002edc4       _$E7                       1002fdc4 f   LexRuby.obj
 0001:0002edce       _$E4                       1002fdce f   LexRuby.obj
 0001:0002edf1       ?ColouriseRbDoc@@YAXIHHQAPAVWordList@@AAVAccessor@@@Z 1002fdf1 f   LexRuby.obj
 0001:0002fcda       ?isSafeAlpha@@YA_ND@Z      10030cda f   LexRuby.obj
 0001:0002fd00       ?isSafeAlnumOrHigh@@YA_ND@Z 10030d00 f   LexRuby.obj
 0001:0002fd24       ?followsDot@@YA_NIAAVAccessor@@@Z 10030d24 f   LexRuby.obj
 0001:0002fd75       ?ClassifyWordRb@@YAHIIAAVWordList@@AAVAccessor@@PAD@Z 10030d75 f   LexRuby.obj
 0001:0002fe7a       ?isMatch@@YA_NAAVAccessor@@HHPBD@Z 10030e7a f   LexRuby.obj
 0001:0002feb4       ?lookingAtHereDocDelim@@YA_NAAVAccessor@@HHPBD@Z 10030eb4 f   LexRuby.obj
 0001:0002fefa       ?redo_char@@YAXAAHAAD110@Z 10030efa f   LexRuby.obj
 0001:0002ff1b       ?advance_char@@YAXAAHAAD11@Z 10030f1b f   LexRuby.obj
 0001:0002ff36       ?RE_CanFollowKeyword@@YA_NPBD@Z 10030f36 f   LexRuby.obj
 0001:0003005e       ?sureThisIsHeredoc@@YA_NHAAVAccessor@@PAD@Z 1003105e f   LexRuby.obj
 0001:0003011e       ?skipWhitespace@@YAHHHAAVAccessor@@@Z 1003111e f   LexRuby.obj
 0001:00030148       ?sureThisIsNotHeredoc@@YA_NHAAVAccessor@@@Z 10031148 f   LexRuby.obj
 0001:0003036e       ?isSafeAlnum@@YA_ND@Z      1003136e f   LexRuby.obj
 0001:00030394       ?haveTargetMatch@@YA_NHHHHAAVAccessor@@@Z 10031394 f   LexRuby.obj
 0001:000303e6       ?synchronizeDocStart@@YAXAAIAAH1AAVAccessor@@_N@Z 100313e6 f   LexRuby.obj
 0001:000304e4       ?currLineContainsHereDelims@@YA_NAAHAAVAccessor@@@Z 100314e4 f   LexRuby.obj
 0001:0003053b       ?isEmptyLine@@YA_NHAAVAccessor@@@Z 1003153b f   LexRuby.obj
 0001:00030568       ?keywordIsAmbiguous@@YA_NPBD@Z 10031568 f   LexRuby.obj
 0001:000305ca       ?keywordIsModifier@@YA_NPBDHAAVAccessor@@@Z 100315ca f   LexRuby.obj
 0001:000306dc       ?getPrevWord@@YAXHPADAAVAccessor@@H@Z 100316dc f   LexRuby.obj
 0001:00030734       ?keywordDoStartsLoop@@YA_NHAAVAccessor@@@Z 10031734 f   LexRuby.obj
 0001:00030805       ?FoldRbDoc@@YAXIHHQAPAVWordList@@AAVAccessor@@@Z 10031805 f   LexRuby.obj
 0001:00030ba5       _$E6                       10031ba5 f   LexRuby.obj
 0001:00030bb1       _$E5                       10031bb1 f   LexRuby.obj
 0001:0002e4a4       _$E7                       1002f4a4 f   LexRebol.obj
 0001:0002e4ae       _$E4                       1002f4ae f   LexRebol.obj
 0001:0002e4d1       ?ColouriseRebolDoc@@YAXIHHQAPAVWordList@@AAVAccessor@@@Z 1002f4d1 f   LexRebol.obj
 0001:0002ea95       ?IsAWordChar@@YA_NH@Z      1002fa95 f   LexRebol.obj
 0001:0002eae8       ?IsAWordStart@@YA_NHH@Z    1002fae8 f   LexRebol.obj
 0001:0002eb49       ?IsAnOperator@@YA_NHHH@Z   1002fb49 f   LexRebol.obj
 0001:0002ebe2       ?IsBinaryStart@@YA_NHHHH@Z 1002fbe2 f   LexRebol.obj
 0001:0002ec2e       ?FoldRebolDoc@@YAXIHHQAPAVWordList@@AAVAccessor@@@Z 1002fc2e f   LexRebol.obj
 0001:0002ed69       _$E6                       1002fd69 f   LexRebol.obj
 0001:0002ed75       _$E5                       1002fd75 f   LexRebol.obj
 0001:0002d9d5       _$E7                       1002e9d5 f   LexPython.obj
 0001:0002d9df       _$E4                       1002e9df f   LexPython.obj
 0001:0002da02       ?ColourisePyDoc@@YAXIHHQAPAVWordList@@AAVAccessor@@@Z 1002ea02 f   LexPython.obj
 0001:0002df7d       ?IsPyComment@@YA_NAAVAccessor@@HH@Z 1002ef7d f   LexPython.obj
 0001:0002df9c       ?IsPyStringStart@@YA_NHHH@Z 1002ef9c f   LexPython.obj
 0001:0002dff3       ?GetPyStringState@@YAHAAVAccessor@@HPAI@Z 1002eff3 f   LexPython.obj
 0001:0002e0a7       ?FoldPyDoc@@YAXIHHQAPAVWordList@@AAVAccessor@@@Z 1002f0a7 f   LexPython.obj
 0001:0002e41a       ?IsCommentLine@@YA_NHAAVAccessor@@@Z 1002f41a f   LexPython.obj
 0001:0002e460       ?IsQuoteLine@@YA_NHAAVAccessor@@@Z 1002f460 f   LexPython.obj
 0001:0002e48d       _$E6                       1002f48d f   LexPython.obj
 0001:0002e499       _$E5                       1002f499 f   LexPython.obj
 0001:0002cfb2       _$E7                       1002dfb2 f   LexPS.obj
 0001:0002cfbc       _$E4                       1002dfbc f   LexPS.obj
 0001:0002cfdf       ?ColourisePSDoc@@YAXIHHQAPAVWordList@@AAVAccessor@@@Z 1002dfdf f   LexPS.obj
 0001:0002d7c2       ?IsASelfDelimitingChar@@YA_NH@Z 1002e7c2 f   LexPS.obj
 0001:0002d7ff       ?IsABaseNDigit@@YA_NHH@Z   1002e7ff f   LexPS.obj
 0001:0002d842       ?FoldPSDoc@@YAXIHHQAPAVWordList@@AAVAccessor@@@Z 1002e842 f   LexPS.obj
 0001:0002d9be       _$E6                       1002e9be f   LexPS.obj
 0001:0002d9ca       _$E5                       1002e9ca f   LexPS.obj
 0001:0002c8ab       _$E7                       1002d8ab f   LexPOV.obj
 0001:0002c8b5       _$E4                       1002d8b5 f   LexPOV.obj
 0001:0002c8d8       ?ColourisePovDoc@@YAXIHHQAPAVWordList@@AAVAccessor@@@Z 1002d8d8 f   LexPOV.obj
 0001:0002cd39       ?IsANumberChar@@YA_NH@Z    1002dd39 f   LexPOV.obj
 0001:0002cd75       ?FoldPovDoc@@YAXIHHQAPAVWordList@@AAVAccessor@@@Z 1002dd75 f   LexPOV.obj
 0001:0002cf9b       _$E6                       1002df9b f   LexPOV.obj
 0001:0002cfa7       _$E5                       1002dfa7 f   LexPOV.obj
 0001:000177bf       ?opposite@@YADD@Z          100187bf f   LexBash.obj
 0001:0002adbb       _$E7                       1002bdbb f   LexPerl.obj
 0001:0002adc5       _$E4                       1002bdc5 f   LexPerl.obj
 0001:0002ade8       ?ColourisePerlDoc@@YAXIHHQAPAVWordList@@AAVAccessor@@@Z 1002bde8 f   LexPerl.obj
 0001:0002c34a       ?isSingleCharOp@@YA_ND@Z   1002d34a f   LexPerl.obj
 0001:0002c36f       ?isPerlOperator@@YA_ND@Z   1002d36f f   LexPerl.obj
 0001:0002c3cd       ?isPerlKeyword@@YA_NIIAAVWordList@@AAVAccessor@@@Z 1002d3cd f   LexPerl.obj
 0001:0002c44a       ?isWordStart@@YA_ND@Z      1002d44a f   LexPerl.obj
 0001:0002c415       ?isEndVar@@YA_ND@Z         1002d415 f   LexPerl.obj
 0001:0002c44a       ?isNonQuote@@YA_ND@Z       1002d44a f   LexPerl.obj
 0001:0002c46e       ?isMatch@@YA_NAAVAccessor@@HHPBD@Z 1002d46e f   LexPerl.obj
 0001:0002c4a8       ?FoldPerlDoc@@YAXIHHQAPAVWordList@@AAVAccessor@@@Z 1002d4a8 f   LexPerl.obj
 0001:0002c833       ?IsCommentLine@@YA_NHAAVAccessor@@@Z 1002d833 f   LexPerl.obj
 0001:0002c894       _$E6                       1002d894 f   LexPerl.obj
 0001:0002c8a0       _$E5                       1002d8a0 f   LexPerl.obj
 0001:0002a8a4       _$E7                       1002b8a4 f   LexPB.obj
 0001:0002a8ae       _$E4                       1002b8ae f   LexPB.obj
 0001:0002a8d1       ?ColourisePBDoc@@YAXIHHQAPAVWordList@@AAVAccessor@@@Z 1002b8d1 f   LexPB.obj
 0001:0002ab3f       ?FoldPBDoc@@YAXIHHQAPAVWordList@@AAVAccessor@@@Z 1002bb3f f   LexPB.obj
 0001:0002ad4b       _$E6                       1002bd4b f   LexPB.obj
 0001:0002ad57       _$E5                       1002bd57 f   LexPB.obj
 0001:00029e23       _$E7                       1002ae23 f   LexPascal.obj
 0001:00029e2d       _$E4                       1002ae2d f   LexPascal.obj
 0001:00029e50       ?ColourisePascalDoc@@YAXIHHQAPAVWordList@@AAVAccessor@@@Z 1002ae50 f   LexPascal.obj
 0001:0002a33b       ?ColourTo@@YAXAAVAccessor@@II_N@Z 1002b33b f   LexPascal.obj
 0001:0002a37c       ?classifyWordPascal@@YAHIIQAPAVWordList@@AAVAccessor@@_N2@Z 1002b37c f   LexPascal.obj
 0001:0002a485       ?getRange@@YAXIIAAVAccessor@@PADI@Z 1002b485 f   LexPascal.obj
 0001:0002a4df       ?FoldPascalDoc@@YAXIHHQAPAVWordList@@AAVAccessor@@@Z 1002b4df f   LexPascal.obj
 0001:00032c87       ?IsStreamCommentStyle@@YA_NH@Z 10033c87 f   LexSQL.obj
 0001:0002a7b5       ?classifyFoldPointPascal@@YAHPBD@Z 1002b7b5 f   LexPascal.obj
 0001:0002a858       _$E6                       1002b858 f   LexPascal.obj
 0001:0002a864       _$E5                       1002b864 f   LexPascal.obj
 0001:00028181       _$E7                       10029181 f   LexOthers.obj
 0001:0002818b       _$E4                       1002918b f   LexOthers.obj
 0001:000281ab       ?ColouriseBatchDoc@@YAXIHHQAPAVWordList@@AAVAccessor@@@Z 100291ab f   LexOthers.obj
 0001:00034c8e       ?AtEOL@@YA_NAAVAccessor@@I@Z 10035c8e f   LexTeX.obj
 0001:00028258       ?ColouriseBatchLine@@YAXPADIIIQAPAVWordList@@AAVAccessor@@@Z 10029258 f   LexOthers.obj
 0001:00028adb       ?Is0To9@@YA_ND@Z           10029adb f   LexOthers.obj
 0001:00028af0       ?IsBOperator@@YA_ND@Z      10029af0 f   LexOthers.obj
 0001:00028b17       ?IsBSeparator@@YA_ND@Z     10029b17 f   LexOthers.obj
 0001:00028b3e       _$E6                       10029b3e f   LexOthers.obj
 0001:00028b4a       _$E5                       10029b4a f   LexOthers.obj
 0001:00028b55       _$E12                      10029b55 f   LexOthers.obj
 0001:00028b5f       _$E9                       10029b5f f   LexOthers.obj
 0001:00028b82       ?ColouriseDiffDoc@@YAXIHHQAPAVWordList@@AAVAccessor@@@Z 10029b82 f   LexOthers.obj
 0001:00028c18       ?ColouriseDiffLine@@YAXPADHAAVAccessor@@@Z 10029c18 f   LexOthers.obj
 0001:00028d56       ?FoldDiffDoc@@YAXIHHQAPAVWordList@@AAVAccessor@@@Z 10029d56 f   LexOthers.obj
 0001:00028e16       _$E11                      10029e16 f   LexOthers.obj
 0001:00028e22       _$E10                      10029e22 f   LexOthers.obj
 0001:00028e2d       _$E17                      10029e2d f   LexOthers.obj
 0001:00028e37       _$E14                      10029e37 f   LexOthers.obj
 0001:00028e5a       ?ColourisePropsDoc@@YAXIHHQAPAVWordList@@AAVAccessor@@@Z 10029e5a f   LexOthers.obj
 0001:00028f01       ?ColourisePropsLine@@YAXPADIIIAAVAccessor@@@Z 10029f01 f   LexOthers.obj
 0001:00028ff6       ?FoldPropsDoc@@YAXIHHQAPAVWordList@@AAVAccessor@@@Z 10029ff6 f   LexOthers.obj
 0001:00029183       _$E16                      1002a183 f   LexOthers.obj
 0001:0002918f       _$E15                      1002a18f f   LexOthers.obj
 0001:0002919a       _$E22                      1002a19a f   LexOthers.obj
 0001:000291a4       _$E19                      1002a1a4 f   LexOthers.obj
 0001:000291c4       ?ColouriseMakeDoc@@YAXIHHQAPAVWordList@@AAVAccessor@@@Z 1002a1c4 f   LexOthers.obj
 0001:0002926b       ?ColouriseMakeLine@@YAXPADIIIAAVAccessor@@@Z 1002a26b f   LexOthers.obj
 0001:000293a0       _$E21                      1002a3a0 f   LexOthers.obj
 0001:000293ac       _$E20                      1002a3ac f   LexOthers.obj
 0001:000293b7       _$E27                      1002a3b7 f   LexOthers.obj
 0001:000293c1       _$E24                      1002a3c1 f   LexOthers.obj
 0001:000293e1       ?ColouriseErrorListDoc@@YAXIHHQAPAVWordList@@AAVAccessor@@@Z 1002a3e1 f   LexOthers.obj
 0001:0002947d       ?ColouriseErrorListLine@@YAXPADIIAAVAccessor@@@Z 1002a47d f   LexOthers.obj
 0001:000294a1       ?RecogniseErrorListLine@@YAHPBDI@Z 1002a4a1 f   LexOthers.obj
 0001:00029a8d       ?Is1To9@@YA_ND@Z           1002aa8d f   LexOthers.obj
 0001:00029aa2       ?strstart@@YA_NPBD0@Z      1002aaa2 f   LexOthers.obj
 0001:00029ac2       _$E26                      1002aac2 f   LexOthers.obj
 0001:00029ace       _$E25                      1002aace f   LexOthers.obj
 0001:00029ad9       _$E32                      1002aad9 f   LexOthers.obj
 0001:00029ae3       _$E29                      1002aae3 f   LexOthers.obj
 0001:00029b03       ?ColouriseLatexDoc@@YAXIHHQAPAVWordList@@AAVAccessor@@@Z 1002ab03 f   LexOthers.obj
 0001:00029cf3       ?isSpecial@@YAHD@Z         1002acf3 f   LexOthers.obj
 0001:00029d22       ?isTag@@YAHHAAVAccessor@@@Z 1002ad22 f   LexOthers.obj
 0001:00029d99       _$E31                      1002ad99 f   LexOthers.obj
 0001:00029da5       _$E30                      1002ada5 f   LexOthers.obj
 0001:00029db0       _$E37                      1002adb0 f   LexOthers.obj
 0001:00029dba       _$E34                      1002adba f   LexOthers.obj
 0001:00029dd7       ?ColouriseNullDoc@@YAXIHHQAPAVWordList@@AAVAccessor@@@Z 1002add7 f   LexOthers.obj
 0001:00029e0c       _$E36                      1002ae0c f   LexOthers.obj
 0001:00029e18       _$E35                      1002ae18 f   LexOthers.obj
 0001:00027b3a       _$E7                       10028b3a f   LexOpal.obj
 0001:00027b44       _$E4                       10028b44 f   LexOpal.obj
 0001:00027b64       ?ColouriseOpalDoc@@YAXIHHQAPAVWordList@@AAVAccessor@@@Z 10028b64 f   LexOpal.obj
 0001:0002816a       _$E6                       1002916a f   LexOpal.obj
 0001:00028176       _$E5                       10029176 f   LexOpal.obj
 0001:00026d10       _$E7                       10027d10 f   LexNsis.obj
 0001:00026d1a       _$E4                       10027d1a f   LexNsis.obj
 0001:00026d3d       ?ColouriseNsisDoc@@YAXIHHQAPAVWordList@@AAVAccessor@@@Z 10027d3d f   LexNsis.obj
 0001:00028adb       ?isNsisNumber@@YA_ND@Z     10029adb f   LexOthers.obj
 0001:00027242       ?isNsisChar@@YA_ND@Z       10028242 f   LexNsis.obj
 0001:00027279       ?classifyWordNsis@@YAHIIQAPAVWordList@@AAVAccessor@@@Z 10028279 f   LexNsis.obj
 0001:000275cf       ?NsisCmp@@YAHPAD0_N@Z      100285cf f   LexNsis.obj
 0001:000275ee       ?FoldNsisDoc@@YAXIHHQAPAVWordList@@AAVAccessor@@@Z 100285ee f   LexNsis.obj
 0001:00027847       ?isNsisLetter@@YA_ND@Z     10028847 f   LexNsis.obj
 0001:00027862       ?NsisNextLineHasElse@@YA_NIIAAVAccessor@@@Z 10028862 f   LexNsis.obj
 0001:000278ce       ?calculateFoldNsis@@YAHIIHAAVAccessor@@_N1@Z 100288ce f   LexNsis.obj
 0001:00027b23       _$E6                       10028b23 f   LexNsis.obj
 0001:00027b2f       _$E5                       10028b2f f   LexNsis.obj
 0001:00026421       _$E7                       10027421 f   LexMSSQL.obj
 0001:0002642b       _$E4                       1002742b f   LexMSSQL.obj
 0001:0002644e       ?ColouriseMSSQLDoc@@YAXIHHQAPAVWordList@@AAVAccessor@@@Z 1002744e f   LexMSSQL.obj
 0001:0002687d       ?isMSSQLOperator@@YA_ND@Z  1002787d f   LexMSSQL.obj
 0001:000268ed       ?classifyWordSQL@@YADIIQAPAVWordList@@AAVAccessor@@II@Z 100278ed f   LexMSSQL.obj
 0001:00026af9       ?FoldMSSQLDoc@@YAXIHHQAPAVWordList@@AAVAccessor@@@Z 10027af9 f   LexMSSQL.obj
 0001:00026cf9       _$E6                       10027cf9 f   LexMSSQL.obj
 0001:00026d05       _$E5                       10027d05 f   LexMSSQL.obj
 0001:00026064       _$E7                       10027064 f   LexMPT.obj
 0001:0002606e       _$E4                       1002706e f   LexMPT.obj
 0001:00026091       ?ColourizeLotDoc@@YAXIHHQAPAVWordList@@AAVAccessor@@@Z 10027091 f   LexMPT.obj
 0001:000261e4       ?GetLotLineState@@YAHAAVSString@@@Z 100271e4 f   LexMPT.obj
 0001:000262b4       ?FoldLotDoc@@YAXIHHQAPAVWordList@@AAVAccessor@@@Z 100272b4 f   LexMPT.obj
 0001:0002640a       _$E6                       1002740a f   LexMPT.obj
 0001:00026416       _$E5                       10027416 f   LexMPT.obj
 0001:00025c39       _$E7                       10026c39 f   LexMMIXAL.obj
 0001:00025c43       _$E4                       10026c43 f   LexMMIXAL.obj
 0001:00025c63       ?ColouriseMMIXALDoc@@YAXIHHQAPAVWordList@@AAVAccessor@@@Z 10026c63 f   LexMMIXAL.obj
 0001:0002604d       _$E6                       1002704d f   LexMMIXAL.obj
 0001:00026059       _$E5                       10027059 f   LexMMIXAL.obj
 0001:000256fc       _$E7                       100266fc f   LexMetapost.obj
 0001:00025706       _$E4                       10026706 f   LexMetapost.obj
 0001:00025726       ?ColouriseMETAPOSTDoc@@YAXIHHQAPAVWordList@@AAVAccessor@@@Z 10026726 f   LexMetapost.obj
 0001:00025a8a       ?isMETAPOSTone@@YA_NH@Z    10026a8a f   LexMetapost.obj
 0001:00025ad1       ?isMETAPOSTthree@@YA_NH@Z  10026ad1 f   LexMetapost.obj
 0001:00025b1d       ?CheckMETAPOSTInterface@@YAHIHAAVAccessor@@H@Z 10026b1d f   LexMetapost.obj
 0001:00034c8e       ?endOfLine@@YA_NAAVAccessor@@I@Z 10035c8e f   LexTeX.obj
 0001:00025c22       _$E6                       10026c22 f   LexMetapost.obj
 0001:00025c2e       _$E5                       10026c2e f   LexMetapost.obj
 0001:00025211       _$E7                       10026211 f   LexMatlab.obj
 0001:0002521b       _$E4                       1002621b f   LexMatlab.obj
 0001:0002523e       ?ColouriseMatlabDoc@@YAXIHHQAPAVWordList@@AAVAccessor@@@Z 1002623e f   LexMatlab.obj
 0001:0002525f       ?IsMatlabCommentChar@@YA_NH@Z 1002625f f   LexMatlab.obj
 0001:0002526a       ?ColouriseMatlabOctaveDoc@@YAXIHHQAPAVWordList@@AAVAccessor@@P6A_NH@Z@Z 1002626a f   LexMatlab.obj
 0001:000254b5       ?FoldMatlabDoc@@YAXIHHQAPAVWordList@@AAVAccessor@@@Z 100264b5 f   LexMatlab.obj
 0001:000254d6       ?IsMatlabComment@@YA_NAAVAccessor@@HH@Z 100264d6 f   LexMatlab.obj
 0001:000254ff       ?FoldMatlabOctaveDoc@@YAXIHHQAPAVWordList@@AAVAccessor@@P6A_N1HH@Z@Z 100264ff f   LexMatlab.obj
 0001:00025621       _$E6                       10026621 f   LexMatlab.obj
 0001:0002562d       _$E5                       1002662d f   LexMatlab.obj
 0001:00025638       _$E12                      10026638 f   LexMatlab.obj
 0001:00025642       _$E9                       10026642 f   LexMatlab.obj
 0001:00025665       ?ColouriseOctaveDoc@@YAXIHHQAPAVWordList@@AAVAccessor@@@Z 10026665 f   LexMatlab.obj
 0001:00025686       ?IsOctaveCommentChar@@YA_NH@Z 10026686 f   LexMatlab.obj
 0001:0002569b       ?FoldOctaveDoc@@YAXIHHQAPAVWordList@@AAVAccessor@@@Z 1002669b f   LexMatlab.obj
 0001:000256bc       ?IsOctaveComment@@YA_NAAVAccessor@@HH@Z 100266bc f   LexMatlab.obj
 0001:000256e5       _$E11                      100266e5 f   LexMatlab.obj
 0001:000256f1       _$E10                      100266f1 f   LexMatlab.obj
 0001:000248f2       _$E7                       100258f2 f   LexLua.obj
 0001:000248fc       _$E4                       100258fc f   LexLua.obj
 0001:0002491f       ?ColouriseLuaDoc@@YAXIHHQAPAVWordList@@AAVAccessor@@@Z 1002591f f   LexLua.obj
 0001:00024e42       ?IsANumberChar@@YA_NH@Z    10025e42 f   LexLua.obj
 0001:00024e92       ?IsLuaOperator@@YA_NH@Z    10025e92 f   LexLua.obj
 0001:00024f1b       ?LongDelimCheck@@YAHAAVStyleContext@@@Z 10025f1b f   LexLua.obj
 0001:00024f68       ?FoldLuaDoc@@YAXIHHQAPAVWordList@@AAVAccessor@@@Z 10025f68 f   LexLua.obj
 0001:000251fa       _$E6                       100261fa f   LexLua.obj
 0001:00025206       _$E5                       10026206 f   LexLua.obj
 0001:00024384       _$E7                       10025384 f   LexLout.obj
 0001:0002438e       _$E4                       1002538e f   LexLout.obj
 0001:000243b1       ?ColouriseLoutDoc@@YAXIHHQAPAVWordList@@AAVAccessor@@@Z 100253b1 f   LexLout.obj
 0001:00024649       ?IsAnOther@@YA_NH@Z        10025649 f   LexLout.obj
 0001:000246ea       ?FoldLoutDoc@@YAXIHHQAPAVWordList@@AAVAccessor@@@Z 100256ea f   LexLout.obj
 0001:000248db       _$E6                       100258db f   LexLout.obj
 0001:000248e7       _$E5                       100258e7 f   LexLout.obj
 0001:00023c6f       _$E7                       10024c6f f   LexLisp.obj
 0001:00023c79       _$E4                       10024c79 f   LexLisp.obj
 0001:00023c9c       ?ColouriseLispDoc@@YAXIHHQAPAVWordList@@AAVAccessor@@@Z 10024c9c f   LexLisp.obj
 0001:000240e9       ?isLispoperator@@YA_ND@Z   100250e9 f   LexLisp.obj
 0001:0002411d       ?isLispwordstart@@YA_ND@Z  1002511d f   LexLisp.obj
 0001:0002415e       ?classifyWordLisp@@YAXIIAAVWordList@@0AAVAccessor@@@Z 1002515e f   LexLisp.obj
 0001:00024231       ?FoldLispDoc@@YAXIHHQAPAVWordList@@AAVAccessor@@@Z 10025231 f   LexLisp.obj
 0001:0002436d       _$E6                       1002536d f   LexLisp.obj
 0001:00024379       _$E5                       10025379 f   LexLisp.obj
 0001:00023983       _$E7                       10024983 f   LexKix.obj
 0001:0002398d       _$E4                       1002498d f   LexKix.obj
 0001:000239aa       ?ColouriseKixDoc@@YAXIHHQAPAVWordList@@AAVAccessor@@@Z 100249aa f   LexKix.obj
 0001:00023c20       ?IsOperator@@YA_NH@Z       10024c20 f   LexKix.obj
 0001:00023c58       _$E6                       10024c58 f   LexKix.obj
 0001:00023c64       _$E5                       10024c64 f   LexKix.obj
 0001:00023341       _$E7                       10024341 f   LexInno.obj
 0001:0002334b       _$E4                       1002434b f   LexInno.obj
 0001:0002336e       ?ColouriseInnoDoc@@YAXIHHQAPAVWordList@@AAVAccessor@@@Z 1002436e f   LexInno.obj
 0001:000237df       ?FoldInnoDoc@@YAXIHHQAPAVWordList@@AAVAccessor@@@Z 100247df f   LexInno.obj
 0001:0002396c       _$E6                       1002496c f   LexInno.obj
 0001:00023978       _$E5                       10024978 f   LexInno.obj
 0001:0001ffb9       _$E7                       10020fb9 f   LexHTML.obj
 0001:0001ffc3       _$E4                       10020fc3 f   LexHTML.obj
 0001:0001ffe3       ?ColouriseHyperTextDoc@@YAXIHHQAPAVWordList@@AAVAccessor@@@Z 10020fe3 f   LexHTML.obj
 0001:000220c6       ?segIsScriptingIndicator@@YA?AW4script_type@@AAVAccessor@@IIW41@@Z 100230c6 f   LexHTML.obj
 0001:0002218b       ?GetTextSegment@@YAXAAVAccessor@@IIPADI@Z 1002318b f   LexHTML.obj
 0001:000221eb       ?PrintScriptingIndicatorOffset@@YAHAAVAccessor@@II@Z 100231eb f   LexHTML.obj
 0001:00022227       ?ScriptOfState@@YA?AW4script_type@@H@Z 10023227 f   LexHTML.obj
 0001:0002227d       ?statePrintForState@@YAHHW4script_mode@@@Z 1002327d f   LexHTML.obj
 0001:000222bf       ?stateForPrintState@@YAHH@Z 100232bf f   LexHTML.obj
 0001:000222e9       ?IsNumber@@YA_NIAAVAccessor@@@Z 100232e9 f   LexHTML.obj
 0001:00022336       ?isStringState@@YA_NH@Z    10023336 f   LexHTML.obj
 0001:0002239c       ?stateAllowsTermination@@YA_NH@Z 1002339c f   LexHTML.obj
 0001:000223c3       ?classifyAttribHTML@@YAXIIAAVWordList@@AAVAccessor@@@Z 100233c3 f   LexHTML.obj
 0001:00022426       ?classifyTagHTML@@YAHIIAAVWordList@@AAVAccessor@@AA_N_N@Z 10023426 f   LexHTML.obj
 0001:0002251d       ?classifyWordHTJS@@YAXIIAAVWordList@@AAVAccessor@@W4script_mode@@@Z 1002351d f   LexHTML.obj
 0001:000225c6       ?classifyWordHTVB@@YAHIIAAVWordList@@AAVAccessor@@W4script_mode@@@Z 100235c6 f   LexHTML.obj
 0001:00022664       ?classifyWordHTPy@@YAXIIAAVWordList@@AAVAccessor@@PADW4script_mode@@@Z 10023664 f   LexHTML.obj
 0001:00022746       ?classifyWordHTPHP@@YAXIIAAVWordList@@AAVAccessor@@@Z 10023746 f   LexHTML.obj
 0001:000227d1       ?isWordHSGML@@YA_NIIAAVWordList@@AAVAccessor@@@Z 100237d1 f   LexHTML.obj
 0001:00022824       ?isWordCdata@@YA_NIIAAVAccessor@@@Z 10023824 f   LexHTML.obj
 0001:00022880       ?StateForScript@@YAHW4script_type@@@Z 10023880 f   LexHTML.obj
 0001:000228ac       ?ishtmlwordchar@@YA_ND@Z   100238ac f   LexHTML.obj
 0001:000228e9       ?issgmlwordchar@@YA_ND@Z   100238e9 f   LexHTML.obj
 0001:00022926       ?IsPhpWordStart@@YA_NE@Z   10023926 f   LexHTML.obj
 0001:00022952       ?IsPhpWordChar@@YA_ND@Z    10023952 f   LexHTML.obj
 0001:00022976       ?InTagState@@YA_NH@Z       10023976 f   LexHTML.obj
 0001:000229ae       ?IsCommentState@@YA_NH@Z   100239ae f   LexHTML.obj
 0001:000229c3       ?IsScriptCommentState@@YA_NH@Z 100239c3 f   LexHTML.obj
 0001:000229ec       ?isLineEnd@@YA_ND@Z        100239ec f   LexHTML.obj
 0001:00022a01       ?isOKBeforeRE@@YA_ND@Z     10023a01 f   LexHTML.obj
 0001:00022a18       ?isPHPStringState@@YA_NH@Z 10023a18 f   LexHTML.obj
 0001:00022a37       ?FindPhpStringDelimiter@@YAHPADHHHAAVAccessor@@@Z 10023a37 f   LexHTML.obj
 0001:00022abf       _$E6                       10023abf f   LexHTML.obj
 0001:00022acb       _$E5                       10023acb f   LexHTML.obj
 0001:00022ad6       _$E12                      10023ad6 f   LexHTML.obj
 0001:00022ae0       _$E9                       10023ae0 f   LexHTML.obj
 0001:00022b00       _$E11                      10023b00 f   LexHTML.obj
 0001:00022b0c       _$E10                      10023b0c f   LexHTML.obj
 0001:00022b17       _$E17                      10023b17 f   LexHTML.obj
 0001:00022b21       _$E14                      10023b21 f   LexHTML.obj
 0001:00022b41       ?ColouriseASPDoc@@YAXIHHQAPAVWordList@@AAVAccessor@@@Z 10023b41 f   LexHTML.obj
 0001:00022b87       ?ColouriseASPPiece@@YAXAAVStyleContext@@QAPAVWordList@@@Z 10023b87 f   LexHTML.obj
 0001:00022c59       ?isASPScript@@YA_NH@Z      10023c59 f   LexHTML.obj
 0001:00022c82       ?ColouriseHBAPiece@@YAXAAVStyleContext@@QAPAVWordList@@@Z 10023c82 f   LexHTML.obj
 0001:00022de4       ?ColouriseHTMLPiece@@YAXAAVStyleContext@@QAPAVWordList@@@Z 10023de4 f   LexHTML.obj
 0001:0002306f       _$E16                      1002406f f   LexHTML.obj
 0001:0002307b       _$E15                      1002407b f   LexHTML.obj
 0001:00023086       _$E22                      10024086 f   LexHTML.obj
 0001:00023090       _$E19                      10024090 f   LexHTML.obj
 0001:000230b0       ?ColourisePHPDoc@@YAXIHHQAPAVWordList@@AAVAccessor@@@Z 100240b0 f   LexHTML.obj
 0001:000230f6       ?ColourisePHPPiece@@YAXAAVStyleContext@@QAPAVWordList@@@Z 100240f6 f   LexHTML.obj
 0001:000232c0       _$E21                      100242c0 f   LexHTML.obj
 0001:000232cc       _$E20                      100242cc f   LexHTML.obj
 0001:000232d7       _$E27                      100242d7 f   LexHTML.obj
 0001:000232e1       _$E24                      100242e1 f   LexHTML.obj
 0001:00023301       ?ColourisePHPScriptDoc@@YAXIHHQAPAVWordList@@AAVAccessor@@@Z 10024301 f   LexHTML.obj
 0001:0002332a       _$E26                      1002432a f   LexHTML.obj
 0001:00023336       _$E25                      10024336 f   LexHTML.obj
 0001:0001fbe1       _$E7                       10020be1 f   LexHaskell.obj
 0001:0001fbeb       _$E4                       10020beb f   LexHaskell.obj
 0001:0001fc08       ?ColorizeHaskellDoc@@YAXIHHQAPAVWordList@@AAVAccessor@@@Z 10020c08 f   LexHaskell.obj
 0001:0001ff83       ?IsWhitespace@@YA_NH@Z     10020f83 f   LexHaskell.obj
 0001:0003206a       ?IsAWordChar@@YA_NH@Z      1003306a f   LexSpecman.obj
 0001:0001ffa2       _$E6                       10020fa2 f   LexHaskell.obj
 0001:0001ffae       _$E5                       10020fae f   LexHaskell.obj
 0001:0001f59a       _$E7                       1002059a f   LexGui4Cli.obj
 0001:0001f5a4       _$E4                       100205a4 f   LexGui4Cli.obj
 0001:0001f5c7       ?ColouriseGui4CliDoc@@YAXIHHQAPAVWordList@@AAVAccessor@@@Z 100205c7 f   LexGui4Cli.obj
 0001:0001f88c       ?colorFirstWord@@YAXQAPAVWordList@@AAVAccessor@@PAVStyleContext@@PADHH@Z 1002088c f   LexGui4Cli.obj
 0001:0001f9ef       ?IsAWordChar@@YA_NH@Z      100209ef f   LexGui4Cli.obj
 0001:0001fa82       ?FoldGui4Cli@@YAXIHHQAPAVWordList@@AAVAccessor@@@Z 10020a82 f   LexGui4Cli.obj
 0001:0001fbca       _$E6                       10020bca f   LexGui4Cli.obj
 0001:0001fbd6       _$E5                       10020bd6 f   LexGui4Cli.obj
 0001:0001e729       _$E7                       1001f729 f   LexFortran.obj
 0001:0001e733       _$E4                       1001f733 f   LexFortran.obj
 0001:0001e756       ?ColouriseFortranDocFreeFormat@@YAXIHHQAPAVWordList@@AAVAccessor@@@Z 1001f756 f   LexFortran.obj
 0001:0001e774       ?ColouriseFortranDoc@@YAXIHHQAPAVWordList@@AAVAccessor@@_N@Z 1001f774 f   LexFortran.obj
 0001:0001ecd2       ?FoldFortranDocFreeFormat@@YAXIHHQAPAVWordList@@AAVAccessor@@@Z 1001fcd2 f   LexFortran.obj
 0001:0001eced       ?FoldFortranDoc@@YAXIHHAAVAccessor@@_N@Z 1001fced f   LexFortran.obj
 0001:0001f20d       ?classifyFoldPointFortran@@YAHPBD0D@Z 1002020d f   LexFortran.obj
 0001:0001f506       _$E6                       10020506 f   LexFortran.obj
 0001:0001f512       _$E5                       10020512 f   LexFortran.obj
 0001:0001f51d       _$E12                      1002051d f   LexFortran.obj
 0001:0001f527       _$E9                       10020527 f   LexFortran.obj
 0001:0001f54a       ?ColouriseFortranDocFixFormat@@YAXIHHQAPAVWordList@@AAVAccessor@@@Z 1002054a f   LexFortran.obj
 0001:0001f568       ?FoldFortranDocFixFormat@@YAXIHHQAPAVWordList@@AAVAccessor@@@Z 10020568 f   LexFortran.obj
 0001:0001f583       _$E11                      10020583 f   LexFortran.obj
 0001:0001f58f       _$E10                      1002058f f   LexFortran.obj
 0001:0001e2e8       _$E7                       1001f2e8 f   LexForth.obj
 0001:0001e2f2       _$E4                       1001f2f2 f   LexForth.obj
 0001:0001e315       ?ColouriseForthDoc@@YAXIHHQAPAVWordList@@AAVAccessor@@@Z 1001f315 f   LexForth.obj
 0001:0001e696       ?FoldForthDoc@@YAXIHHQAPAVWordList@@AAVAccessor@@@Z 1001f696 f   LexForth.obj
 0001:0001e697       _$E6                       1001f697 f   LexForth.obj
 0001:0001e6a3       _$E5                       1001f6a3 f   LexForth.obj
 0001:0001dc0c       _$E7                       1001ec0c f   LexFlagship.obj
 0001:0001dc16       _$E4                       1001ec16 f   LexFlagship.obj
 0001:0001dc39       ?ColouriseFlagShipDoc@@YAXIHHQAPAVWordList@@AAVAccessor@@@Z 1001ec39 f   LexFlagship.obj
 0001:0001dfb2       ?IsADateCharacter@@YA_NH@Z 1001efb2 f   LexFlagship.obj
 0001:0001dff1       ?FoldFlagShipDoc@@YAXIHHQAPAVWordList@@AAVAccessor@@@Z 1001eff1 f   LexFlagship.obj
 0001:00034e37       ?IsFlagShipComment@@YA_NAAVAccessor@@HH@Z 10035e37 f   LexVB.obj
 0001:0001e11b       _$E6                       1001f11b f   LexFlagship.obj
 0001:0001e127       _$E5                       1001f127 f   LexFlagship.obj
 0001:0001d4cb       _$E7                       1001e4cb f   LexEScript.obj
 0001:0001d4d5       _$E4                       1001e4d5 f   LexEScript.obj
 0001:0001d4f8       ?ColouriseESCRIPTDoc@@YAXIHHQAPAVWordList@@AAVAccessor@@@Z 1001e4f8 f   LexEScript.obj
 0001:0001d7f0       ?FoldESCRIPTDoc@@YAXIHHQAPAVWordList@@AAVAccessor@@@Z 1001e7f0 f   LexEScript.obj
 0001:0001da6b       ?classifyFoldPointESCRIPT@@YAHPBD0@Z 1001ea6b f   LexEScript.obj
 0001:0001dbdb       ?IsStreamCommentStyle@@YA_NH@Z 1001ebdb f   LexEScript.obj
 0001:0001dbf5       _$E6                       1001ebf5 f   LexEScript.obj
 0001:0001dc01       _$E5                       1001ec01 f   LexEScript.obj
 0001:0001cce7       _$E7                       1001dce7 f   LexErlang.obj
 0001:0001ccf1       _$E4                       1001dcf1 f   LexErlang.obj
 0001:0001cd14       ?ColouriseErlangDoc@@YAXIHHQAPAVWordList@@AAVAccessor@@@Z 1001dd14 f   LexErlang.obj
 0001:0001d269       ?is_radix@@YAHHH@Z         1001e269 f   LexErlang.obj
 0001:0001d2b2       ?FoldErlangDoc@@YAXIHHPAPAVWordList@@AAVAccessor@@@Z 1001e2b2 f   LexErlang.obj
 0001:0001d42c       ?ClassifyFoldPointErlang@@YAHAAVAccessor@@HH@Z 1001e42c f   LexErlang.obj
 0001:0001d4b4       _$E6                       1001e4b4 f   LexErlang.obj
 0001:0001d4c0       _$E5                       1001e4c0 f   LexErlang.obj
 0001:0001c629       _$E7                       1001d629 f   LexEiffel.obj
 0001:0001c633       _$E4                       1001d633 f   LexEiffel.obj
 0001:0001c656       ?ColouriseEiffelDoc@@YAXIHHQAPAVWordList@@AAVAccessor@@@Z 1001d656 f   LexEiffel.obj
 0001:0001c825       ?isEiffelOperator@@YA_NI@Z 1001d825 f   LexEiffel.obj
 0001:0001c8a8       ?FoldEiffelDocIndent@@YAXIHHQAPAVWordList@@AAVAccessor@@@Z 1001d8a8 f   LexEiffel.obj
 0001:0001c9d2       ?IsEiffelComment@@YA_NAAVAccessor@@HH@Z 1001d9d2 f   LexEiffel.obj
 0001:0001ca04       _$E6                       1001da04 f   LexEiffel.obj
 0001:0001ca10       _$E5                       1001da10 f   LexEiffel.obj
 0001:0001ca1b       _$E12                      1001da1b f   LexEiffel.obj
 0001:0001ca25       _$E9                       1001da25 f   LexEiffel.obj
 0001:0001ca48       ?FoldEiffelDocKeyWords@@YAXIHHQAPAVWordList@@AAVAccessor@@@Z 1001da48 f   LexEiffel.obj
 0001:0001ccd0       _$E11                      1001dcd0 f   LexEiffel.obj
 0001:0001ccdc       _$E10                      1001dcdc f   LexEiffel.obj
 0001:0001be39       _$E7                       1001ce39 f   LexCSS.obj
 0001:0001be43       _$E4                       1001ce43 f   LexCSS.obj
 0001:0001be66       ?ColouriseCssDoc@@YAXIHHQAPAVWordList@@AAVAccessor@@@Z 1001ce66 f   LexCSS.obj
 0001:0001c489       ?FoldCSSDoc@@YAXIHHQAPAVWordList@@AAVAccessor@@@Z 1001d489 f   LexCSS.obj
 0001:0001c612       _$E6                       1001d612 f   LexCSS.obj
 0001:0001c61e       _$E5                       1001d61e f   LexCSS.obj
 0001:0001b986       _$E7                       1001c986 f   LexCsound.obj
 0001:0001b990       _$E4                       1001c990 f   LexCsound.obj
 0001:0001b9b3       ?ColouriseCsoundDoc@@YAXIHHQAPAVWordList@@AAVAccessor@@@Z 1001c9b3 f   LexCsound.obj
 0001:0001bbfd       ?IsAWordChar@@YA_NH@Z      1001cbfd f   LexCsound.obj
 0001:0001bc2d       ?IsAWordStart@@YA_NH@Z     1001cc2d f   LexCsound.obj
 0001:000155a2       ?IsCsoundOperator@@YA_ND@Z 100165a2 f   LexAsm.obj
 0001:0001bc6c       ?FoldCsoundInstruments@@YAXIHHQAPAVWordList@@AAVAccessor@@@Z 1001cc6c f   LexCsound.obj
 0001:0001be22       _$E6                       1001ce22 f   LexCsound.obj
 0001:0001be2e       _$E5                       1001ce2e f   LexCsound.obj
 0001:0001b54b       _$E7                       1001c54b f   LexCrontab.obj
 0001:0001b555       _$E4                       1001c555 f   LexCrontab.obj
 0001:0001b575       ?ColouriseNncrontabDoc@@YAXIHHQAPAVWordList@@AAVAccessor@@@Z 1001c575 f   LexCrontab.obj
 0001:0001b96f       _$E6                       1001c96f f   LexCrontab.obj
 0001:0001b97b       _$E5                       1001c97b f   LexCrontab.obj
 0001:0001aa50       _$E7                       1001ba50 f   LexCPP.obj
 0001:0001aa5a       _$E4                       1001ba5a f   LexCPP.obj
 0001:0001aa7d       ?FoldCppDoc@@YAXIHHQAPAVWordList@@AAVAccessor@@@Z 1001ba7d f   LexCPP.obj
 0001:0001aa96       ?FoldNoBoxCppDoc@@YAXIHHAAVAccessor@@@Z 1001ba96 f   LexCPP.obj
 0001:00032c87       ?IsStreamCommentStyle@@YA_NH@Z 10033c87 f   LexSQL.obj
 0001:0001ad29       ?ColouriseCppDocSensitive@@YAXIHHQAPAVWordList@@AAVAccessor@@@Z 1001bd29 f   LexCPP.obj
 0001:0001ad47       ?ColouriseCppDoc@@YAXIHHQAPAVWordList@@AAVAccessor@@_N@Z 1001bd47 f   LexCPP.obj
 0001:00014928       ?IsSpaceEquiv@@YA_NH@Z     10015928 f   LexAIPI.obj
 0001:0001b4d2       _$E6                       1001c4d2 f   LexCPP.obj
 0001:0001b4de       _$E5                       1001c4de f   LexCPP.obj
 0001:0001b4e9       _$E12                      1001c4e9 f   LexCPP.obj
 0001:0001b4f3       _$E9                       1001c4f3 f   LexCPP.obj
 0001:0001b516       ?ColouriseCppDocInsensitive@@YAXIHHQAPAVWordList@@AAVAccessor@@@Z 1001c516 f   LexCPP.obj
 0001:0001b534       _$E11                      1001c534 f   LexCPP.obj
 0001:0001b540       _$E10                      1001c540 f   LexCPP.obj
 0001:0001a6c0       _$E7                       1001b6c0 f   LexConf.obj
 0001:0001a6ca       _$E4                       1001b6ca f   LexConf.obj
 0001:0001a6ea       ?ColouriseConfDoc@@YAXIHHQAPAVWordList@@AAVAccessor@@@Z 1001b6ea f   LexConf.obj
 0001:0001aa39       _$E6                       1001ba39 f   LexConf.obj
 0001:0001aa45       _$E5                       1001ba45 f   LexConf.obj
 0001:00019a47       _$E7                       1001aa47 f   LexCLW.obj
 0001:00019a51       _$E4                       1001aa51 f   LexCLW.obj
 0001:00019a74       ?ColouriseClarionDocSensitive@@YAXIHHQAPAVWordList@@AAVAccessor@@@Z 1001aa74 f   LexCLW.obj
 0001:00019a92       ?ColouriseClarionDoc@@YAXIHHQAPAVWordList@@AAVAccessor@@_N@Z 1001aa92 f   LexCLW.obj
 0001:0001a08e       ?StringUpper@@YAXPAD@Z     1001b08e f   LexCLW.obj
 0001:0001a0a9       ?CharacterUpper@@YADD@Z    1001b0a9 f   LexCLW.obj
 0001:0001a156       ?FoldClarionDoc@@YAXIHHQAPAVWordList@@AAVAccessor@@@Z 1001b156 f   LexCLW.obj
 0001:0001a2ea       ?FillBuffer@@YAXIIAAVAccessor@@PADI@Z 1001b2ea f   LexCLW.obj
 0001:0001a344       ?ClassifyClarionFoldPoint@@YAHHPBD@Z 1001b344 f   LexCLW.obj
 0001:0001a647       _$E6                       1001b647 f   LexCLW.obj
 0001:0001a653       _$E5                       1001b653 f   LexCLW.obj
 0001:0001a65e       _$E12                      1001b65e f   LexCLW.obj
 0001:0001a668       _$E9                       1001b668 f   LexCLW.obj
 0001:0001a68b       ?ColouriseClarionDocInsensitive@@YAXIHHQAPAVWordList@@AAVAccessor@@@Z 1001b68b f   LexCLW.obj
 0001:0001a6a9       _$E11                      1001b6a9 f   LexCLW.obj
 0001:0001a6b5       _$E10                      1001b6b5 f   LexCLW.obj
 0001:00019a03       _$E7                       1001aa03 f   LexCaml.obj
 0001:00019a0d       _$E4                       1001aa0d f   LexCaml.obj
 0001:00019a30       _$E6                       1001aa30 f   LexCaml.obj
 0001:00019a3c       _$E5                       1001aa3c f   LexCaml.obj
 0001:00018da4       _$E7                       10019da4 f   LexBullant.obj
 0001:00018dae       _$E4                       10019dae f   LexBullant.obj
 0001:00018dce       ?ColouriseBullantDoc@@YAXIHHQAPAVWordList@@AAVAccessor@@@Z 10019dce f   LexBullant.obj
 0001:00019245       ?classifyWordBullant@@YAHIIAAVWordList@@AAVAccessor@@@Z 1001a245 f   LexBullant.obj
 0001:000193f3       _$E6                       1001a3f3 f   LexBullant.obj
 0001:000193ff       _$E5                       1001a3ff f   LexBullant.obj
 0001:000185e5       _$E7                       100195e5 f   LexBasic.obj
 0001:000185ef       _$E4                       100195ef f   LexBasic.obj
 0001:00018612       ?ColouriseBlitzBasicDoc@@YAXIHHQAPAVWordList@@AAVAccessor@@@Z 10019612 f   LexBasic.obj
 0001:00018630       ?ColouriseBasicDoc@@YAXIHHQAPAVWordList@@AAVAccessor@@D@Z 10019630 f   LexBasic.obj
 0001:000188bb       ?IsSpace@@YA_NH@Z          100198bb f   LexBasic.obj
 0001:000188d7       ?IsOperator@@YA_NH@Z       100198d7 f   LexBasic.obj
 0001:000188f3       ?IsIdentifier@@YA_NH@Z     100198f3 f   LexBasic.obj
 0001:0001890f       ?IsDigit@@YA_NH@Z          1001990f f   LexBasic.obj
 0001:0001892b       ?IsHexDigit@@YA_NH@Z       1001992b f   LexBasic.obj
 0001:00018947       ?IsBinDigit@@YA_NH@Z       10019947 f   LexBasic.obj
 0001:00018963       ?FoldBlitzBasicDoc@@YAXIHHQAPAVWordList@@AAVAccessor@@@Z 10019963 f   LexBasic.obj
 0001:0001897d       ?CheckBlitzFoldPoint@@YAHPBDAAH@Z 1001997d f   LexBasic.obj
 0001:000189dc       ?FoldBasicDoc@@YAXIHAAVAccessor@@P6AHPBDAAH@Z@Z 100199dc f   LexBasic.obj
 0001:00018b5b       ?LowerCase@@YAHH@Z         10019b5b f   LexBasic.obj
 0001:00018b6d       _$E6                       10019b6d f   LexBasic.obj
 0001:00018b79       _$E5                       10019b79 f   LexBasic.obj
 0001:00018b84       _$E12                      10019b84 f   LexBasic.obj
 0001:00018b8e       _$E9                       10019b8e f   LexBasic.obj
 0001:00018bb1       ?ColourisePureBasicDoc@@YAXIHHQAPAVWordList@@AAVAccessor@@@Z 10019bb1 f   LexBasic.obj
 0001:00018bcf       ?FoldPureBasicDoc@@YAXIHHQAPAVWordList@@AAVAccessor@@@Z 10019bcf f   LexBasic.obj
 0001:00018be9       ?CheckPureFoldPoint@@YAHPBDAAH@Z 10019be9 f   LexBasic.obj
 0001:00018c90       _$E11                      10019c90 f   LexBasic.obj
 0001:00018c9c       _$E10                      10019c9c f   LexBasic.obj
 0001:00018ca7       _$E17                      10019ca7 f   LexBasic.obj
 0001:00018cb1       _$E14                      10019cb1 f   LexBasic.obj
 0001:00018cd4       ?ColouriseFreeBasicDoc@@YAXIHHQAPAVWordList@@AAVAccessor@@@Z 10019cd4 f   LexBasic.obj
 0001:00018cf2       ?FoldFreeBasicDoc@@YAXIHHQAPAVWordList@@AAVAccessor@@@Z 10019cf2 f   LexBasic.obj
 0001:00018d0c       ?CheckFreeFoldPoint@@YAHPBDAAH@Z 10019d0c f   LexBasic.obj
 0001:00018d8d       _$E16                      10019d8d f   LexBasic.obj
 0001:00018d99       _$E15                      10019d99 f   LexBasic.obj
 0001:000177bf       ?opposite@@YADD@Z          100187bf f   LexBash.obj
 0001:000177df       _$E7                       100187df f   LexBash.obj
 0001:000177e9       _$E4                       100187e9 f   LexBash.obj
 0001:0001780c       ?ColouriseBashDoc@@YAXIHHQAPAVWordList@@AAVAccessor@@@Z 1001880c f   LexBash.obj
 0001:000181e7       ?translateBashDigit@@YAHD@Z 100191e7 f   LexBash.obj
 0001:00018231       ?isSingleCharOp@@YA_ND@Z   10019231 f   LexBash.obj
 0001:00018256       ?isBashOperator@@YA_ND@Z   10019256 f   LexBash.obj
 0001:000182c4       ?classifyWordBash@@YAHIIAAVWordList@@AAVAccessor@@@Z 100192c4 f   LexBash.obj
 0001:00018336       ?getBashNumberBase@@YAHIIAAVAccessor@@@Z 10019336 f   LexBash.obj
 0001:00018388       ?isEndVar@@YA_ND@Z         10019388 f   LexBash.obj
 0001:000183ae       ?isMatch@@YA_NAAVAccessor@@HHPBD@Z 100193ae f   LexBash.obj
 0001:000183e8       ?FoldBashDoc@@YAXIHHQAPAVWordList@@AAVAccessor@@@Z 100193e8 f   LexBash.obj
 0001:0002e41a       ?IsCommentLine@@YA_NHAAVAccessor@@@Z 1002f41a f   LexPython.obj
 0001:000185ce       _$E6                       100195ce f   LexBash.obj
 0001:000185da       _$E5                       100195da f   LexBash.obj
 0001:00017234       _$E7                       10018234 f   LexBaan.obj
 0001:0001723e       _$E4                       1001823e f   LexBaan.obj
 0001:0001725e       ?ColouriseBaanDoc@@YAXIHHQAPAVWordList@@AAVAccessor@@@Z 1001825e f   LexBaan.obj
 0001:0001757c       ?IsAWordChar@@YA_NH@Z      1001857c f   LexBaan.obj
 0001:000175b1       ?FoldBaanDoc@@YAXIHHQAPAVWordList@@AAVAccessor@@@Z 100185b1 f   LexBaan.obj
 0001:00017750       _$E6                       10018750 f   LexBaan.obj
 0001:0001775c       _$E5                       1001875c f   LexBaan.obj
 0001:00016c59       _$E7                       10017c59 f   LexAVE.obj
 0001:00016c63       _$E4                       10017c63 f   LexAVE.obj
 0001:00016c83       ?ColouriseAveDoc@@YAXIHHQAPAVWordList@@AAVAccessor@@@Z 10017c83 f   LexAVE.obj
 0001:00016fb9       ?FoldAveDoc@@YAXIHHQAPAVWordList@@AAVAccessor@@@Z 10017fb9 f   LexAVE.obj
 0001:0001721d       _$E6                       1001821d f   LexAVE.obj
 0001:00017229       _$E5                       10018229 f   LexAVE.obj
 0001:0001595f       _$E7                       1001695f f   LexAU3.obj
 0001:00015969       _$E4                       10016969 f   LexAU3.obj
 0001:0001598c       ?ColouriseAU3Doc@@YAXIHHQAPAVWordList@@AAVAccessor@@@Z 1001698c f   LexAU3.obj
 0001:000163ed       ?IsAWordStart@@YA_NH@Z     100173ed f   LexAU3.obj
 0001:00016427       ?IsAOperator@@YA_ND@Z      10017427 f   LexAU3.obj
 0001:0001648d       ?GetSendKey@@YAHPBDPAD@Z   1001748d f   LexAU3.obj
 0001:0001658a       ?IsContinuationLine@@YA_NIAAVAccessor@@@Z 1001758a f   LexAU3.obj
 0001:000165e2       ?FoldAU3Doc@@YAXIHHQAPAVWordList@@AAVAccessor@@@Z 100175e2 f   LexAU3.obj
 0001:00016be2       ?IsStreamCommentStyle@@YA_NH@Z 10017be2 f   LexAU3.obj
 0001:00016bf5       ?GetStyleFirstWord@@YAHIAAVAccessor@@@Z 10017bf5 f   LexAU3.obj
 0001:00016c42       _$E6                       10017c42 f   LexAU3.obj
 0001:00016c4e       _$E5                       10017c4e f   LexAU3.obj
 0001:0001562e       _$E7                       1001662e f   LexAsn1.obj
 0001:00015638       _$E4                       10016638 f   LexAsn1.obj
 0001:0001565b       ?ColouriseAsn1Doc@@YAXIHHQAPAVWordList@@AAVAccessor@@@Z 1001665b f   LexAsn1.obj
 0001:000158da       ?isAsn1Number@@YA_NH@Z     100168da f   LexAsn1.obj
 0001:000158ef       ?isAsn1Char@@YA_NH@Z       100168ef f   LexAsn1.obj
 0001:00015918       ?isAsn1Letter@@YA_NH@Z     10016918 f   LexAsn1.obj
 0001:00015937       ?FoldAsn1Doc@@YAXIHHQAPAVWordList@@AAVAccessor@@@Z 10016937 f   LexAsn1.obj
 0001:00015948       _$E6                       10016948 f   LexAsn1.obj
 0001:00015954       _$E5                       10016954 f   LexAsn1.obj
 0001:000152c3       _$E7                       100162c3 f   LexAsm.obj
 0001:000152cd       _$E4                       100162cd f   LexAsm.obj
 0001:000152ed       ?ColouriseAsmDoc@@YAXIHHQAPAVWordList@@AAVAccessor@@@Z 100162ed f   LexAsm.obj
 0001:0001bbfd       ?IsAWordChar@@YA_NH@Z      1001cbfd f   LexCsound.obj
 0001:0001bc2d       ?IsAWordStart@@YA_NH@Z     1001cc2d f   LexCsound.obj
 0001:000155a2       ?IsAsmOperator@@YA_ND@Z    100165a2 f   LexAsm.obj
 0001:00015617       _$E6                       10016617 f   LexAsm.obj
 0001:00015623       _$E5                       10016623 f   LexAsm.obj
 0001:00014f46       _$E7                       10015f46 f   LexAPDL.obj
 0001:00014f50       _$E4                       10015f50 f   LexAPDL.obj
 0001:00014f70       ?ColouriseAPDLDoc@@YAXIHHQAPAVWordList@@AAVAccessor@@@Z 10015f70 f   LexAPDL.obj
 0001:00015256       ?IsAnOperator@@YA_ND@Z     10016256 f   LexAPDL.obj
 0001:000152ac       _$E6                       100162ac f   LexAPDL.obj
 0001:000152b8       _$E5                       100162b8 f   LexAPDL.obj
 0001:000149c0       _$E7                       100159c0 f   LexAIPIBullant.obj
 0001:000149ca       _$E4                       100159ca f   LexAIPIBullant.obj
 0001:000149ea       ?ColouriseAIPIBullantDoc@@YAXIHHQAPAVWordList@@AAVAccessor@@@Z 100159ea f   LexAIPIBullant.obj
 0001:00019245       ?classifyWordAIPIBullant@@YAHIIAAVWordList@@AAVAccessor@@@Z 1001a245 f   LexBullant.obj
 0001:00014f2f       _$E6                       10015f2f f   LexAIPIBullant.obj
 0001:00014f3b       _$E5                       10015f3b f   LexAIPIBullant.obj
 0001:00013d19       _$E7                       10014d19 f   LexAIPI.obj
 0001:00013d23       _$E4                       10014d23 f   LexAIPI.obj
 0001:00013d46       ?FoldAIPIDoc@@YAXIHHQAPAVWordList@@AAVAccessor@@@Z 10014d46 f   LexAIPI.obj
 0001:00013d5f       ?FoldNoBoxCppDoc@@YAXIHHAAVAccessor@@@Z 10014d5f f   LexAIPI.obj
 0001:00032c87       ?IsStreamCommentStyle@@YA_NH@Z 10033c87 f   LexSQL.obj
 0001:00013ff2       ?ColouriseAIPIDocSensitive@@YAXIHHQAPAVWordList@@AAVAccessor@@@Z 10014ff2 f   LexAIPI.obj
 0001:00014010       ?ColouriseAIPIDoc@@YAXIHHQAPAVWordList@@AAVAccessor@@_N@Z 10015010 f   LexAIPI.obj
 0001:00014928       ?IsSpaceEquiv@@YA_NH@Z     10015928 f   LexAIPI.obj
 0001:00014947       _$E6                       10015947 f   LexAIPI.obj
 0001:00014953       _$E5                       10015953 f   LexAIPI.obj
 0001:0001495e       _$E12                      1001595e f   LexAIPI.obj
 0001:00014968       _$E9                       10015968 f   LexAIPI.obj
 0001:0001498b       ?ColouriseAIPIDocInsensitive@@YAXIHHQAPAVWordList@@AAVAccessor@@@Z 1001598b f   LexAIPI.obj
 0001:000149a9       _$E11                      100159a9 f   LexAIPI.obj
 0001:000149b5       _$E10                      100159b5 f   LexAIPI.obj
 0001:00013278       _$E7                       10014278 f   LexAda.obj
 0001:00013282       _$E4                       10014282 f   LexAda.obj
 0001:000132a2       _$E6                       100142a2 f   LexAda.obj
 0001:000132ae       _$E5                       100142ae f   LexAda.obj
 0001:000132b9       ?ColouriseDocument@@YAXIHHQAPAVWordList@@AAVAccessor@@@Z 100142b9 f   LexAda.obj
 0001:000135b5       ?ColouriseCharacter@@YAXAAVStyleContext@@AA_N@Z 100145b5 f   LexAda.obj
 0001:000135e7       ?ColouriseContext@@YAXAAVStyleContext@@DH@Z 100145e7 f   LexAda.obj
 0001:00013647       ?ColouriseComment@@YAXAAVStyleContext@@AA_N@Z 10014647 f   LexAda.obj
 0001:00013666       ?ColouriseDelimiter@@YAXAAVStyleContext@@AA_N@Z 10014666 f   LexAda.obj
 0001:0001368c       ?ColouriseLabel@@YAXAAVStyleContext@@AAVWordList@@AA_N@Z 1001468c f   LexAda.obj
 0001:00013761       ?ColouriseNumber@@YAXAAVStyleContext@@AA_N@Z 10014761 f   LexAda.obj
 0001:00013842       ?ColouriseString@@YAXAAVStyleContext@@AA_N@Z 10014842 f   LexAda.obj
 0001:0001386e       ?ColouriseWhiteSpace@@YAXAAVStyleContext@@AA_N@Z 1001486e f   LexAda.obj
 0001:00013885       ?ColouriseWord@@YAXAAVStyleContext@@AAVWordList@@AA_N@Z 10014885 f   LexAda.obj
 0001:0001394b       ?IsSeparatorOrDelimiterCharacter@@YA_NH@Z 1001494b f   LexAda.obj
 0001:0001397e       ?IsValidIdentifier@@YA_NABVSString@@@Z 1001497e f   LexAda.obj
 0001:00013a33       ?IsValidNumber@@YA_NABVSString@@@Z 10014a33 f   LexAda.obj
 0001:00013ce9       ?IsWordCharacter@@YA_NH@Z  10014ce9 f   LexAda.obj
 0001:00012bbb       _$E8                       10013bbb f   ExternalLexer.obj
 0001:00012bc5       _$E5                       10013bc5 f   ExternalLexer.obj
 0001:00012bc6       _$E7                       10013bc6 f   ExternalLexer.obj
 0001:00012bd2       _$E6                       10013bd2 f   ExternalLexer.obj
 0001:000088ce       ?istrlen@@YAHPBD@Z         100098ce f   Editor.obj
 0001:0000912a       ?IsSpaceOrTab@@YA_ND@Z     1000a12a f   Editor.obj
 0001:000095f5       ?SimpleAlphaRectangle@@YAXPAVSurface@@VPRectangle@@VColourAllocated@@H@Z 1000a5f5 f   Editor.obj
 0001:0000cb63       ?CanDeferToLastStep@@YA_NABVDocModification@@@Z 1000db63 f   Editor.obj
 0001:0000cb7e       ?CanEliminate@@YA_NABVDocModification@@@Z 1000db7e f   Editor.obj
 0001:0000cb90       ?IsLastStep@@YA_NABVDocModification@@@Z 1000db90 f   Editor.obj
 0001:0000eee8       ?Close@@YA_NVPoint@@0@Z    1000fee8 f   Editor.obj
 0001:00012739       ?ValidMargin@@YA_NK@Z      10013739 f   Editor.obj
 0001:00012743       ?CharPtrFromSPtr@@YAPADJ@Z 10013743 f   Editor.obj
 0001:00002fed       ?IsSubordinate@@YA_NHH@Z   10003fed f   Document.obj
 0001:00003aaf       ?NextTab@@YAHHH@Z          10004aaf f   Document.obj
 0001:00003b58       ?CreateIndentation@@YAXPADHHH_N@Z 10004b58 f   Document.obj
 0001:0000912a       ?isindentchar@@YA_ND@Z     1000a12a f   Editor.obj
 0001:000054ab       ?BraceOpposite@@YADD@Z     100064ab f   Document.obj
 0001:00000894       ?IsArrowCharacter@@YA_ND@Z 10001894 f   CallTip.obj
 0001:0004832f       _flsall                    1004932f f   LIBCMT:fflush.obj
 0001:00047ed4       _strtoxl                   10048ed4 f   LIBCMT:strtol.obj
 0001:00047c76       _getSystemCP               10048c76 f   LIBCMT:mbctype.obj
 0001:00047cc0       _CPtoLCID                  10048cc0 f   LIBCMT:mbctype.obj
 0001:00047cf3       _setSBCS                   10048cf3 f   LIBCMT:mbctype.obj
 0001:00047d1c       _setSBUpLow                10048d1c f   LIBCMT:mbctype.obj
 0001:000471e5       __abstract_cw              100481e5 f   LIBCMT:ieee87.obj
 0001:00047277       __hw_cw                    10048277 f   LIBCMT:ieee87.obj
 0001:00046820       _gu_return                 10047820 f   LIBCMT:exsup.obj
 0001:00046828       __unwind_handler           10047828 f   LIBCMT:exsup.obj
 0001:00045091       _parse_cmdline             10046091 f   LIBCMT:stdargv.obj
 0001:00044750       __cftoe2                   10045750 f   LIBCMT:cvt.obj
 0001:00044867       __cftof2                   10045867 f   LIBCMT:cvt.obj
 0001:000449f2       __shift                    100459f2 f   LIBCMT:cvt.obj
 0001:00043fe1       _doexit                    10044fe1 f   LIBCMT:crt0dat.obj
 0001:00044098       __initterm                 10045098 f   LIBCMT:crt0dat.obj
 0001:00043f69       _strncnt                   10044f69 f   LIBCMT:a_map.obj
 0001:00043b71       _write_char                10044b71 f   LIBCMT:output.obj
 0001:00043ba6       _write_multi_char          10044ba6 f   LIBCMT:output.obj
 0001:00043bd7       _write_string              10044bd7 f   LIBCMT:output.obj
 0001:00043c0f       _get_int_arg               10044c0f f   LIBCMT:output.obj
 0001:00043c1c       _get_int64_arg             10044c1c f   LIBCMT:output.obj
 0001:00043c2c       _get_short_arg             10044c2c f   LIBCMT:output.obj
 0001:00042e00       _shortsort                 10043e00 f   LIBCMT:qsort.obj
 0001:00042e4e       _swap                      10043e4e f   LIBCMT:qsort.obj
 0001:00042900       LeadUp1                    10043900 f   LIBCMT:memmove.obj
 0001:0004292c       LeadUp2                    1004392c f   LIBCMT:memmove.obj
 0001:00042950       LeadUp3                    10043950 f   LIBCMT:memmove.obj
 0001:000429cf       UnwindUp0                  100439cf f   LIBCMT:memmove.obj
 0001:000429bc       UnwindUp1                  100439bc f   LIBCMT:memmove.obj
 0001:000429b4       UnwindUp2                  100439b4 f   LIBCMT:memmove.obj
 0001:000429ac       UnwindUp3                  100439ac f   LIBCMT:memmove.obj
 0001:000429a4       UnwindUp4                  100439a4 f   LIBCMT:memmove.obj
 0001:0004299c       UnwindUp5                  1004399c f   LIBCMT:memmove.obj
 0001:00042994       UnwindUp6                  10043994 f   LIBCMT:memmove.obj
 0001:0004298c       UnwindUp7                  1004398c f   LIBCMT:memmove.obj
 0001:000429e8       TrailUp0                   100439e8 f   LIBCMT:memmove.obj
 0001:000429f0       TrailUp1                   100439f0 f   LIBCMT:memmove.obj
 0001:000429fc       TrailUp2                   100439fc f   LIBCMT:memmove.obj
 0001:00042a10       TrailUp3                   10043a10 f   LIBCMT:memmove.obj
 0001:00042a88       LeadDown1                  10043a88 f   LIBCMT:memmove.obj
 0001:00042aa8       LeadDown2                  10043aa8 f   LIBCMT:memmove.obj
 0001:00042ad0       LeadDown3                  10043ad0 f   LIBCMT:memmove.obj
 0001:00042b24       UnwindDown7                10043b24 f   LIBCMT:memmove.obj
 0001:00042b2c       UnwindDown6                10043b2c f   LIBCMT:memmove.obj
 0001:00042b34       UnwindDown5                10043b34 f   LIBCMT:memmove.obj
 0001:00042b3c       UnwindDown4                10043b3c f   LIBCMT:memmove.obj
 0001:00042b44       UnwindDown3                10043b44 f   LIBCMT:memmove.obj
 0001:00042b4c       UnwindDown2                10043b4c f   LIBCMT:memmove.obj
 0001:00042b54       UnwindDown1                10043b54 f   LIBCMT:memmove.obj
 0001:00042b67       UnwindDown0                10043b67 f   LIBCMT:memmove.obj
 0001:00042b80       TrailDown0                 10043b80 f   LIBCMT:memmove.obj
 0001:00042b88       TrailDown1                 10043b88 f   LIBCMT:memmove.obj
 0001:00042b98       TrailDown2                 10043b98 f   LIBCMT:memmove.obj
 0001:00042bac       TrailDown3                 10043bac f   LIBCMT:memmove.obj
 0001:00041df0       LeadUp1                    10042df0 f   LIBCMT:memcpy.obj
 0001:00041e1c       LeadUp2                    10042e1c f   LIBCMT:memcpy.obj
 0001:00041e40       LeadUp3                    10042e40 f   LIBCMT:memcpy.obj
 0001:00041ebf       UnwindUp0                  10042ebf f   LIBCMT:memcpy.obj
 0001:00041eac       UnwindUp1                  10042eac f   LIBCMT:memcpy.obj
 0001:00041ea4       UnwindUp2                  10042ea4 f   LIBCMT:memcpy.obj
 0001:00041e9c       UnwindUp3                  10042e9c f   LIBCMT:memcpy.obj
 0001:00041e94       UnwindUp4                  10042e94 f   LIBCMT:memcpy.obj
 0001:00041e8c       UnwindUp5                  10042e8c f   LIBCMT:memcpy.obj
 0001:00041e84       UnwindUp6                  10042e84 f   LIBCMT:memcpy.obj
 0001:00041e7c       UnwindUp7                  10042e7c f   LIBCMT:memcpy.obj
 0001:00041ed8       TrailUp0                   10042ed8 f   LIBCMT:memcpy.obj
 0001:00041ee0       TrailUp1                   10042ee0 f   LIBCMT:memcpy.obj
 0001:00041eec       TrailUp2                   10042eec f   LIBCMT:memcpy.obj
 0001:00041f00       TrailUp3                   10042f00 f   LIBCMT:memcpy.obj
 0001:00041f78       LeadDown1                  10042f78 f   LIBCMT:memcpy.obj
 0001:00041f98       LeadDown2                  10042f98 f   LIBCMT:memcpy.obj
 0001:00041fc0       LeadDown3                  10042fc0 f   LIBCMT:memcpy.obj
 0001:00042014       UnwindDown7                10043014 f   LIBCMT:memcpy.obj
 0001:0004201c       UnwindDown6                1004301c f   LIBCMT:memcpy.obj
 0001:00042024       UnwindDown5                10043024 f   LIBCMT:memcpy.obj
 0001:0004202c       UnwindDown4                1004302c f   LIBCMT:memcpy.obj
 0001:00042034       UnwindDown3                10043034 f   LIBCMT:memcpy.obj
 0001:0004203c       UnwindDown2                1004303c f   LIBCMT:memcpy.obj
 0001:00042044       UnwindDown1                10043044 f   LIBCMT:memcpy.obj
 0001:00042057       UnwindDown0                10043057 f   LIBCMT:memcpy.obj
 0001:00042070       TrailDown0                 10043070 f   LIBCMT:memcpy.obj
 0001:00042078       TrailDown1                 10043078 f   LIBCMT:memcpy.obj
 0001:00042088       TrailDown2                 10043088 f   LIBCMT:memcpy.obj
 0001:0004209c       TrailDown3                 1004309c f   LIBCMT:memcpy.obj

 355 bytes saved through ICF

